
I2C2CAN.elf:     file format elf32-avr

Sections:
Idx Name          Size      VMA       LMA       File off  Algn
  0 .data         00000000  00800100  00800100  00000c8c  2**0
                  CONTENTS, ALLOC, LOAD, DATA
  1 .text         00000c18  00000000  00000000  00000074  2**1
                  CONTENTS, ALLOC, LOAD, READONLY, CODE
  2 .bss          0000020b  00800100  00800100  00000c8c  2**0
                  ALLOC
  3 .comment      00000030  00000000  00000000  00000c8c  2**0
                  CONTENTS, READONLY
  4 .note.gnu.avr.deviceinfo 00000040  00000000  00000000  00000cbc  2**2
                  CONTENTS, READONLY
  5 .debug_aranges 000001d8  00000000  00000000  00000cfc  2**0
                  CONTENTS, READONLY, DEBUGGING
  6 .debug_info   000027ec  00000000  00000000  00000ed4  2**0
                  CONTENTS, READONLY, DEBUGGING
  7 .debug_abbrev 000018cb  00000000  00000000  000036c0  2**0
                  CONTENTS, READONLY, DEBUGGING
  8 .debug_line   000015ce  00000000  00000000  00004f8b  2**0
                  CONTENTS, READONLY, DEBUGGING
  9 .debug_frame  00000414  00000000  00000000  0000655c  2**2
                  CONTENTS, READONLY, DEBUGGING
 10 .debug_str    00000a50  00000000  00000000  00006970  2**0
                  CONTENTS, READONLY, DEBUGGING
 11 .debug_loc    00001148  00000000  00000000  000073c0  2**0
                  CONTENTS, READONLY, DEBUGGING
 12 .debug_ranges 000001a8  00000000  00000000  00008508  2**0
                  CONTENTS, READONLY, DEBUGGING

Disassembly of section .text:

00000000 <__vectors>:
   0:	0c 94 4a 00 	jmp	0x94	; 0x94 <__ctors_end>
   4:	0c 94 5c 00 	jmp	0xb8	; 0xb8 <__bad_interrupt>
   8:	0c 94 5c 00 	jmp	0xb8	; 0xb8 <__bad_interrupt>
   c:	0c 94 5c 00 	jmp	0xb8	; 0xb8 <__bad_interrupt>
  10:	0c 94 5c 00 	jmp	0xb8	; 0xb8 <__bad_interrupt>
  14:	0c 94 5c 00 	jmp	0xb8	; 0xb8 <__bad_interrupt>
  18:	0c 94 5c 00 	jmp	0xb8	; 0xb8 <__bad_interrupt>
  1c:	0c 94 5c 00 	jmp	0xb8	; 0xb8 <__bad_interrupt>
  20:	0c 94 5c 00 	jmp	0xb8	; 0xb8 <__bad_interrupt>
  24:	0c 94 5c 00 	jmp	0xb8	; 0xb8 <__bad_interrupt>
  28:	0c 94 5c 00 	jmp	0xb8	; 0xb8 <__bad_interrupt>
  2c:	0c 94 5c 00 	jmp	0xb8	; 0xb8 <__bad_interrupt>
  30:	0c 94 5c 00 	jmp	0xb8	; 0xb8 <__bad_interrupt>
  34:	0c 94 5c 00 	jmp	0xb8	; 0xb8 <__bad_interrupt>
  38:	0c 94 5c 00 	jmp	0xb8	; 0xb8 <__bad_interrupt>
  3c:	0c 94 c2 05 	jmp	0xb84	; 0xb84 <__vector_15>
  40:	0c 94 5c 00 	jmp	0xb8	; 0xb8 <__bad_interrupt>
  44:	0c 94 5c 00 	jmp	0xb8	; 0xb8 <__bad_interrupt>
  48:	0c 94 fd 00 	jmp	0x1fa	; 0x1fa <__vector_18>
  4c:	0c 94 81 01 	jmp	0x302	; 0x302 <__vector_19>
  50:	0c 94 5c 00 	jmp	0xb8	; 0xb8 <__bad_interrupt>
  54:	0c 94 5c 00 	jmp	0xb8	; 0xb8 <__bad_interrupt>
  58:	0c 94 5c 00 	jmp	0xb8	; 0xb8 <__bad_interrupt>
  5c:	0c 94 5c 00 	jmp	0xb8	; 0xb8 <__bad_interrupt>
  60:	0c 94 5c 00 	jmp	0xb8	; 0xb8 <__bad_interrupt>
  64:	0c 94 5c 00 	jmp	0xb8	; 0xb8 <__bad_interrupt>
  68:	0c 94 5c 00 	jmp	0xb8	; 0xb8 <__bad_interrupt>
  6c:	0c 94 5c 00 	jmp	0xb8	; 0xb8 <__bad_interrupt>
  70:	0c 94 5c 00 	jmp	0xb8	; 0xb8 <__bad_interrupt>
  74:	0c 94 5c 00 	jmp	0xb8	; 0xb8 <__bad_interrupt>
  78:	0c 94 5c 00 	jmp	0xb8	; 0xb8 <__bad_interrupt>

0000007c <__trampolines_end>:
  7c:	7e 6e       	ori	r23, 0xEE	; 238
  7e:	7f 62       	ori	r23, 0x2F	; 47
  80:	0c 37       	cpi	r16, 0x7C	; 124
  82:	26 0c       	add	r2, r6
  84:	37 12       	cpse	r3, r23
  86:	0c 37       	cpi	r16, 0x7C	; 124
  88:	0e 0c       	add	r0, r14
  8a:	37 06       	cpc	r3, r23
  8c:	0c 37       	cpi	r16, 0x7C	; 124
  8e:	02 0c       	add	r0, r2
  90:	37 00       	.word	0x0037	; ????
  92:	0c 36       	cpi	r16, 0x6C	; 108

00000094 <__ctors_end>:
  94:	11 24       	eor	r1, r1
  96:	1f be       	out	0x3f, r1	; 63
  98:	cf ef       	ldi	r28, 0xFF	; 255
  9a:	d4 e0       	ldi	r29, 0x04	; 4
  9c:	de bf       	out	0x3e, r29	; 62
  9e:	cd bf       	out	0x3d, r28	; 61

000000a0 <__do_clear_bss>:
  a0:	23 e0       	ldi	r18, 0x03	; 3
  a2:	a0 e0       	ldi	r26, 0x00	; 0
  a4:	b1 e0       	ldi	r27, 0x01	; 1
  a6:	01 c0       	rjmp	.+2      	; 0xaa <.do_clear_bss_start>

000000a8 <.do_clear_bss_loop>:
  a8:	1d 92       	st	X+, r1

000000aa <.do_clear_bss_start>:
  aa:	ab 30       	cpi	r26, 0x0B	; 11
  ac:	b2 07       	cpc	r27, r18
  ae:	e1 f7       	brne	.-8      	; 0xa8 <.do_clear_bss_loop>
  b0:	0e 94 36 05 	call	0xa6c	; 0xa6c <main>
  b4:	0c 94 0a 06 	jmp	0xc14	; 0xc14 <_exit>

000000b8 <__bad_interrupt>:
  b8:	0c 94 00 00 	jmp	0	; 0x0 <__vectors>

000000bc <_find_free_mob>:
// get next free MOb

uint8_t _find_free_mob(void)
{
	#if CAN_TX_BUFFER_SIZE == 0
	if (_free_buffer == 0)
  bc:	80 91 04 01 	lds	r24, 0x0104	; 0x800104 <_free_buffer>
  c0:	88 23       	and	r24, r24
  c2:	d1 f0       	breq	.+52     	; 0xf8 <_find_free_mob+0x3c>
	
	uint8_t i;
	for (i = 0;i < MESSAGE_OBJECTS;i++)
	{
		// load MOb page
		CANPAGE = i << 4;
  c4:	10 92 ed 00 	sts	0x00ED, r1	; 0x8000ed <__TEXT_REGION_LENGTH__+0x7e00ed>
		
		// check if MOb is in use
		if ((CANCDMOB & ((1 << CONMOB1) | (1 << CONMOB0))) == 0)
  c8:	80 91 ef 00 	lds	r24, 0x00EF	; 0x8000ef <__TEXT_REGION_LENGTH__+0x7e00ef>
  cc:	80 7c       	andi	r24, 0xC0	; 192
  ce:	69 f0       	breq	.+26     	; 0xea <_find_free_mob+0x2e>
  d0:	81 e0       	ldi	r24, 0x01	; 1
	
	uint8_t i;
	for (i = 0;i < MESSAGE_OBJECTS;i++)
	{
		// load MOb page
		CANPAGE = i << 4;
  d2:	ad ee       	ldi	r26, 0xED	; 237
  d4:	b0 e0       	ldi	r27, 0x00	; 0
		
		// check if MOb is in use
		if ((CANCDMOB & ((1 << CONMOB1) | (1 << CONMOB0))) == 0)
  d6:	ef ee       	ldi	r30, 0xEF	; 239
  d8:	f0 e0       	ldi	r31, 0x00	; 0
	
	uint8_t i;
	for (i = 0;i < MESSAGE_OBJECTS;i++)
	{
		// load MOb page
		CANPAGE = i << 4;
  da:	98 2f       	mov	r25, r24
  dc:	92 95       	swap	r25
  de:	90 7f       	andi	r25, 0xF0	; 240
  e0:	9c 93       	st	X, r25
		
		// check if MOb is in use
		if ((CANCDMOB & ((1 << CONMOB1) | (1 << CONMOB0))) == 0)
  e2:	90 81       	ld	r25, Z
  e4:	90 7c       	andi	r25, 0xC0	; 192
  e6:	19 f4       	brne	.+6      	; 0xee <_find_free_mob+0x32>
  e8:	08 95       	ret
  ea:	80 e0       	ldi	r24, 0x00	; 0
			return i;
  ec:	08 95       	ret
	if (_transmission_in_progress)
		return 0xff;
	#endif
	
	uint8_t i;
	for (i = 0;i < MESSAGE_OBJECTS;i++)
  ee:	8f 5f       	subi	r24, 0xFF	; 255
  f0:	86 30       	cpi	r24, 0x06	; 6
  f2:	99 f7       	brne	.-26     	; 0xda <_find_free_mob+0x1e>
		// check if MOb is in use
		if ((CANCDMOB & ((1 << CONMOB1) | (1 << CONMOB0))) == 0)
			return i;
	}
	
	return 0xff;
  f4:	8f ef       	ldi	r24, 0xFF	; 255
  f6:	08 95       	ret

uint8_t _find_free_mob(void)
{
	#if CAN_TX_BUFFER_SIZE == 0
	if (_free_buffer == 0)
		return 0xff;
  f8:	8f ef       	ldi	r24, 0xFF	; 255
		if ((CANCDMOB & ((1 << CONMOB1) | (1 << CONMOB0))) == 0)
			return i;
	}
	
	return 0xff;
}
  fa:	08 95       	ret

000000fc <_disable_mob_interrupt>:
// ----------------------------------------------------------------------------
// disable interrupt of corresponding MOb

void _disable_mob_interrupt(uint8_t mob)
{
	if (mob < 8)
  fc:	88 30       	cpi	r24, 0x08	; 8
  fe:	80 f4       	brcc	.+32     	; 0x120 <_disable_mob_interrupt+0x24>
		CANIE2 &= ~(1 << mob);
 100:	ee ed       	ldi	r30, 0xDE	; 222
 102:	f0 e0       	ldi	r31, 0x00	; 0
 104:	40 81       	ld	r20, Z
 106:	21 e0       	ldi	r18, 0x01	; 1
 108:	30 e0       	ldi	r19, 0x00	; 0
 10a:	b9 01       	movw	r22, r18
 10c:	02 c0       	rjmp	.+4      	; 0x112 <_disable_mob_interrupt+0x16>
 10e:	66 0f       	add	r22, r22
 110:	77 1f       	adc	r23, r23
 112:	8a 95       	dec	r24
 114:	e2 f7       	brpl	.-8      	; 0x10e <_disable_mob_interrupt+0x12>
 116:	cb 01       	movw	r24, r22
 118:	80 95       	com	r24
 11a:	84 23       	and	r24, r20
 11c:	80 83       	st	Z, r24
 11e:	08 95       	ret
	else
		CANIE1 &= ~(1 << (mob - 8));
 120:	ef ed       	ldi	r30, 0xDF	; 223
 122:	f0 e0       	ldi	r31, 0x00	; 0
 124:	40 81       	ld	r20, Z
 126:	88 50       	subi	r24, 0x08	; 8
 128:	21 e0       	ldi	r18, 0x01	; 1
 12a:	30 e0       	ldi	r19, 0x00	; 0
 12c:	b9 01       	movw	r22, r18
 12e:	02 c0       	rjmp	.+4      	; 0x134 <_disable_mob_interrupt+0x38>
 130:	66 0f       	add	r22, r22
 132:	77 1f       	adc	r23, r23
 134:	8a 95       	dec	r24
 136:	e2 f7       	brpl	.-8      	; 0x130 <_disable_mob_interrupt+0x34>
 138:	cb 01       	movw	r24, r22
 13a:	80 95       	com	r24
 13c:	84 23       	and	r24, r20
 13e:	80 83       	st	Z, r24
 140:	08 95       	ret

00000142 <_enable_mob_interrupt>:
// ----------------------------------------------------------------------------
// enable interrupt of corresponding MOb

void _enable_mob_interrupt(uint8_t mob)
{
	if (mob < 8)
 142:	88 30       	cpi	r24, 0x08	; 8
 144:	78 f4       	brcc	.+30     	; 0x164 <_enable_mob_interrupt+0x22>
		CANIE2 |= (1 << mob);
 146:	ee ed       	ldi	r30, 0xDE	; 222
 148:	f0 e0       	ldi	r31, 0x00	; 0
 14a:	40 81       	ld	r20, Z
 14c:	21 e0       	ldi	r18, 0x01	; 1
 14e:	30 e0       	ldi	r19, 0x00	; 0
 150:	b9 01       	movw	r22, r18
 152:	02 c0       	rjmp	.+4      	; 0x158 <_enable_mob_interrupt+0x16>
 154:	66 0f       	add	r22, r22
 156:	77 1f       	adc	r23, r23
 158:	8a 95       	dec	r24
 15a:	e2 f7       	brpl	.-8      	; 0x154 <_enable_mob_interrupt+0x12>
 15c:	cb 01       	movw	r24, r22
 15e:	84 2b       	or	r24, r20
 160:	80 83       	st	Z, r24
 162:	08 95       	ret
	else
		CANIE1 |= (1 << (mob - 8));
 164:	ef ed       	ldi	r30, 0xDF	; 223
 166:	f0 e0       	ldi	r31, 0x00	; 0
 168:	40 81       	ld	r20, Z
 16a:	88 50       	subi	r24, 0x08	; 8
 16c:	21 e0       	ldi	r18, 0x01	; 1
 16e:	30 e0       	ldi	r19, 0x00	; 0
 170:	b9 01       	movw	r22, r18
 172:	02 c0       	rjmp	.+4      	; 0x178 <_enable_mob_interrupt+0x36>
 174:	66 0f       	add	r22, r22
 176:	77 1f       	adc	r23, r23
 178:	8a 95       	dec	r24
 17a:	e2 f7       	brpl	.-8      	; 0x174 <_enable_mob_interrupt+0x32>
 17c:	cb 01       	movw	r24, r22
 17e:	84 2b       	or	r24, r20
 180:	80 83       	st	Z, r24
 182:	08 95       	ret

00000184 <can_init>:
}

// ----------------------------------------------------------------------------

bool at90can_init(uint8_t bitrate)
{
 184:	cf 93       	push	r28
 186:	df 93       	push	r29
	if (bitrate >= 8)
 188:	88 30       	cpi	r24, 0x08	; 8
 18a:	98 f5       	brcc	.+102    	; 0x1f2 <can_init+0x6e>
		return false;
	
	// switch CAN controller to reset mode
	CANGCON |= (1 << SWRES);
 18c:	c8 ed       	ldi	r28, 0xD8	; 216
 18e:	d0 e0       	ldi	r29, 0x00	; 0
 190:	98 81       	ld	r25, Y
 192:	91 60       	ori	r25, 0x01	; 1
 194:	98 83       	st	Y, r25
	
	// set CAN Bit Timing
	// (see datasheet page 260)
	CANBT1 = pgm_read_byte(&_at90can_cnf[bitrate][0]);
 196:	90 e0       	ldi	r25, 0x00	; 0
 198:	fc 01       	movw	r30, r24
 19a:	ee 0f       	add	r30, r30
 19c:	ff 1f       	adc	r31, r31
 19e:	8e 0f       	add	r24, r30
 1a0:	9f 1f       	adc	r25, r31
 1a2:	fc 01       	movw	r30, r24
 1a4:	e4 58       	subi	r30, 0x84	; 132
 1a6:	ff 4f       	sbci	r31, 0xFF	; 255
 1a8:	e4 91       	lpm	r30, Z
 1aa:	e0 93 e2 00 	sts	0x00E2, r30	; 0x8000e2 <__TEXT_REGION_LENGTH__+0x7e00e2>
	CANBT2 = pgm_read_byte(&_at90can_cnf[bitrate][1]);
 1ae:	fc 01       	movw	r30, r24
 1b0:	e3 58       	subi	r30, 0x83	; 131
 1b2:	ff 4f       	sbci	r31, 0xFF	; 255
 1b4:	e4 91       	lpm	r30, Z
 1b6:	e0 93 e3 00 	sts	0x00E3, r30	; 0x8000e3 <__TEXT_REGION_LENGTH__+0x7e00e3>
	CANBT3 = pgm_read_byte(&_at90can_cnf[bitrate][2]);
 1ba:	fc 01       	movw	r30, r24
 1bc:	e2 58       	subi	r30, 0x82	; 130
 1be:	ff 4f       	sbci	r31, 0xFF	; 255
 1c0:	84 91       	lpm	r24, Z
 1c2:	80 93 e4 00 	sts	0x00E4, r24	; 0x8000e4 <__TEXT_REGION_LENGTH__+0x7e00e4>
	
	// activate CAN transmit- and receive-interrupt
	CANGIT = 0;
 1c6:	10 92 da 00 	sts	0x00DA, r1	; 0x8000da <__TEXT_REGION_LENGTH__+0x7e00da>
	CANGIE = (1 << ENIT) | (1 << ENRX) | (1 << ENTX);
 1ca:	80 eb       	ldi	r24, 0xB0	; 176
 1cc:	80 93 db 00 	sts	0x00DB, r24	; 0x8000db <__TEXT_REGION_LENGTH__+0x7e00db>
	
	// set timer prescaler to a value which results in a timer
	// frequency of 10 kHz
	CANTCON = AT90CAN_TIMER_PRESCALE;
 1d0:	87 ec       	ldi	r24, 0xC7	; 199
 1d2:	80 93 e5 00 	sts	0x00E5, r24	; 0x8000e5 <__TEXT_REGION_LENGTH__+0x7e00e5>

	// disable all filters
	at90can_disable_filter( 0xff );
 1d6:	8f ef       	ldi	r24, 0xFF	; 255
 1d8:	0e 94 8b 01 	call	0x316	; 0x316 <can_disable_filter>
	
	#if CAN_RX_BUFFER_SIZE > 0
	can_buffer_init( &can_rx_buffer, CAN_RX_BUFFER_SIZE, can_rx_list );
 1dc:	45 e0       	ldi	r20, 0x05	; 5
 1de:	51 e0       	ldi	r21, 0x01	; 1
 1e0:	60 e2       	ldi	r22, 0x20	; 32
 1e2:	85 e0       	ldi	r24, 0x05	; 5
 1e4:	93 e0       	ldi	r25, 0x03	; 3
 1e6:	0e 94 1c 04 	call	0x838	; 0x838 <can_buffer_init>
	#if CAN_TX_BUFFER_SIZE > 0
	can_buffer_init( &can_tx_buffer, CAN_TX_BUFFER_SIZE, can_tx_list );
	#endif
	
	// activate CAN controller
	CANGCON = (1 << ENASTB);
 1ea:	82 e0       	ldi	r24, 0x02	; 2
 1ec:	88 83       	st	Y, r24
	
	return true;
 1ee:	81 e0       	ldi	r24, 0x01	; 1
 1f0:	01 c0       	rjmp	.+2      	; 0x1f4 <can_init+0x70>
// ----------------------------------------------------------------------------

bool at90can_init(uint8_t bitrate)
{
	if (bitrate >= 8)
		return false;
 1f2:	80 e0       	ldi	r24, 0x00	; 0
	
	// activate CAN controller
	CANGCON = (1 << ENASTB);
	
	return true;
}
 1f4:	df 91       	pop	r29
 1f6:	cf 91       	pop	r28
 1f8:	08 95       	ret

000001fa <__vector_18>:
#ifdef AT90CAN
	ISR(CANIT_vect)
#else
	ISR(CAN_INT_vect)
#endif
{
 1fa:	1f 92       	push	r1
 1fc:	0f 92       	push	r0
 1fe:	0f b6       	in	r0, 0x3f	; 63
 200:	0f 92       	push	r0
 202:	11 24       	eor	r1, r1
 204:	2f 93       	push	r18
 206:	3f 93       	push	r19
 208:	4f 93       	push	r20
 20a:	5f 93       	push	r21
 20c:	6f 93       	push	r22
 20e:	7f 93       	push	r23
 210:	8f 93       	push	r24
 212:	9f 93       	push	r25
 214:	af 93       	push	r26
 216:	bf 93       	push	r27
 218:	cf 93       	push	r28
 21a:	ef 93       	push	r30
 21c:	ff 93       	push	r31
	uint8_t canpage;
	uint8_t mob;
	
	if ((CANHPMOB & 0xF0) != 0xF0)
 21e:	80 91 ec 00 	lds	r24, 0x00EC	; 0x8000ec <__TEXT_REGION_LENGTH__+0x7e00ec>
 222:	80 7f       	andi	r24, 0xF0	; 240
 224:	80 3f       	cpi	r24, 0xF0	; 240
 226:	09 f4       	brne	.+2      	; 0x22a <__vector_18+0x30>
 228:	56 c0       	rjmp	.+172    	; 0x2d6 <__vector_18+0xdc>
	{
		// save MOb page register
		canpage = CANPAGE;
 22a:	ad ee       	ldi	r26, 0xED	; 237
 22c:	b0 e0       	ldi	r27, 0x00	; 0
 22e:	cc 91       	ld	r28, X
		
		// select MOb page with the highest priority
		CANPAGE = CANHPMOB & 0xF0;
 230:	ec ee       	ldi	r30, 0xEC	; 236
 232:	f0 e0       	ldi	r31, 0x00	; 0
 234:	80 81       	ld	r24, Z
 236:	80 7f       	andi	r24, 0xF0	; 240
 238:	8c 93       	st	X, r24
		mob = (CANHPMOB >> 4);
 23a:	80 81       	ld	r24, Z
		
		// a interrupt is only generated if a message was transmitted or received
		if (CANSTMOB & (1 << TXOK))
 23c:	90 91 ee 00 	lds	r25, 0x00EE	; 0x8000ee <__TEXT_REGION_LENGTH__+0x7e00ee>
 240:	96 ff       	sbrs	r25, 6
 242:	30 c0       	rjmp	.+96     	; 0x2a4 <__vector_18+0xaa>
		// save MOb page register
		canpage = CANPAGE;
		
		// select MOb page with the highest priority
		CANPAGE = CANHPMOB & 0xF0;
		mob = (CANHPMOB >> 4);
 244:	82 95       	swap	r24
 246:	8f 70       	andi	r24, 0x0F	; 15
		
		// a interrupt is only generated if a message was transmitted or received
		if (CANSTMOB & (1 << TXOK))
		{
			// clear MOb
			CANSTMOB &= 0;
 248:	ee ee       	ldi	r30, 0xEE	; 238
 24a:	f0 e0       	ldi	r31, 0x00	; 0
 24c:	90 81       	ld	r25, Z
 24e:	10 82       	st	Z, r1
			CANCDMOB = 0;
 250:	10 92 ef 00 	sts	0x00EF, r1	; 0x8000ef <__TEXT_REGION_LENGTH__+0x7e00ef>
				// buffer underflow => no more messages to send
				_disable_mob_interrupt(mob);
				_transmission_in_progress = 0;
			}
			#else
			_free_buffer++;
 254:	90 91 04 01 	lds	r25, 0x0104	; 0x800104 <_free_buffer>
 258:	9f 5f       	subi	r25, 0xFF	; 255
 25a:	90 93 04 01 	sts	0x0104, r25	; 0x800104 <_free_buffer>
			
			// reset interrupt
			if (mob < 8)
 25e:	88 30       	cpi	r24, 0x08	; 8
 260:	80 f4       	brcc	.+32     	; 0x282 <__vector_18+0x88>
				CANIE2 &= ~(1 << mob);
 262:	ee ed       	ldi	r30, 0xDE	; 222
 264:	f0 e0       	ldi	r31, 0x00	; 0
 266:	40 81       	ld	r20, Z
 268:	21 e0       	ldi	r18, 0x01	; 1
 26a:	30 e0       	ldi	r19, 0x00	; 0
 26c:	b9 01       	movw	r22, r18
 26e:	02 c0       	rjmp	.+4      	; 0x274 <__vector_18+0x7a>
 270:	66 0f       	add	r22, r22
 272:	77 1f       	adc	r23, r23
 274:	8a 95       	dec	r24
 276:	e2 f7       	brpl	.-8      	; 0x270 <__vector_18+0x76>
 278:	cb 01       	movw	r24, r22
 27a:	80 95       	com	r24
 27c:	84 23       	and	r24, r20
 27e:	80 83       	st	Z, r24
 280:	27 c0       	rjmp	.+78     	; 0x2d0 <__vector_18+0xd6>
			else
				CANIE1 &= ~(1 << (mob - 8));
 282:	ef ed       	ldi	r30, 0xDF	; 223
 284:	f0 e0       	ldi	r31, 0x00	; 0
 286:	40 81       	ld	r20, Z
 288:	88 50       	subi	r24, 0x08	; 8
 28a:	21 e0       	ldi	r18, 0x01	; 1
 28c:	30 e0       	ldi	r19, 0x00	; 0
 28e:	b9 01       	movw	r22, r18
 290:	02 c0       	rjmp	.+4      	; 0x296 <__vector_18+0x9c>
 292:	66 0f       	add	r22, r22
 294:	77 1f       	adc	r23, r23
 296:	8a 95       	dec	r24
 298:	e2 f7       	brpl	.-8      	; 0x292 <__vector_18+0x98>
 29a:	cb 01       	movw	r24, r22
 29c:	80 95       	com	r24
 29e:	84 23       	and	r24, r20
 2a0:	80 83       	st	Z, r24
 2a2:	16 c0       	rjmp	.+44     	; 0x2d0 <__vector_18+0xd6>
			CAN_INDICATE_TX_TRAFFIC_FUNCTION;
		}
		else {
			// a message was received successfully
			#if CAN_RX_BUFFER_SIZE > 0
			can_t *buf = can_buffer_get_enqueue_ptr(&can_rx_buffer);
 2a4:	85 e0       	ldi	r24, 0x05	; 5
 2a6:	93 e0       	ldi	r25, 0x03	; 3
 2a8:	0e 94 32 04 	call	0x864	; 0x864 <can_buffer_get_enqueue_ptr>
			
			if (buf != NULL)
 2ac:	00 97       	sbiw	r24, 0x00	; 0
 2ae:	31 f0       	breq	.+12     	; 0x2bc <__vector_18+0xc2>
			{
				// read message
				at90can_copy_mob_to_message( buf );
 2b0:	0e 94 e8 01 	call	0x3d0	; 0x3d0 <at90can_copy_mob_to_message>
				
				// push it to the list
				can_buffer_enqueue(&can_rx_buffer);
 2b4:	85 e0       	ldi	r24, 0x05	; 5
 2b6:	93 e0       	ldi	r25, 0x03	; 3
 2b8:	0e 94 47 04 	call	0x88e	; 0x88e <can_buffer_enqueue>
				// buffer overflow => reject message
				// FIXME inform the user
			}
			
			// clear flags
			CANSTMOB &= 0;
 2bc:	ee ee       	ldi	r30, 0xEE	; 238
 2be:	f0 e0       	ldi	r31, 0x00	; 0
 2c0:	80 81       	ld	r24, Z
 2c2:	10 82       	st	Z, r1
			CANCDMOB = (1 << CONMOB1) | (CANCDMOB & (1 << IDE));
 2c4:	ef ee       	ldi	r30, 0xEF	; 239
 2c6:	f0 e0       	ldi	r31, 0x00	; 0
 2c8:	80 81       	ld	r24, Z
 2ca:	80 71       	andi	r24, 0x10	; 16
 2cc:	80 68       	ori	r24, 0x80	; 128
 2ce:	80 83       	st	Z, r24
			
			CAN_INDICATE_RX_TRAFFIC_FUNCTION;
		}
		
		// restore MOb page register
		CANPAGE = canpage;
 2d0:	c0 93 ed 00 	sts	0x00ED, r28	; 0x8000ed <__TEXT_REGION_LENGTH__+0x7e00ed>
 2d4:	04 c0       	rjmp	.+8      	; 0x2de <__vector_18+0xe4>
	}
	else
	{
		// no MOb matches with the interrupt => general interrupt
		CANGIT |= 0;
 2d6:	ea ed       	ldi	r30, 0xDA	; 218
 2d8:	f0 e0       	ldi	r31, 0x00	; 0
 2da:	80 81       	ld	r24, Z
 2dc:	80 83       	st	Z, r24
	}
}
 2de:	ff 91       	pop	r31
 2e0:	ef 91       	pop	r30
 2e2:	cf 91       	pop	r28
 2e4:	bf 91       	pop	r27
 2e6:	af 91       	pop	r26
 2e8:	9f 91       	pop	r25
 2ea:	8f 91       	pop	r24
 2ec:	7f 91       	pop	r23
 2ee:	6f 91       	pop	r22
 2f0:	5f 91       	pop	r21
 2f2:	4f 91       	pop	r20
 2f4:	3f 91       	pop	r19
 2f6:	2f 91       	pop	r18
 2f8:	0f 90       	pop	r0
 2fa:	0f be       	out	0x3f, r0	; 63
 2fc:	0f 90       	pop	r0
 2fe:	1f 90       	pop	r1
 300:	18 95       	reti

00000302 <__vector_19>:
// ----------------------------------------------------------------------------
// Overflow of CAN timer
#ifdef AT90CAN
	ISR(OVRIT_vect) {}
#else
	ISR(CAN_TOVF_vect) {}
 302:	1f 92       	push	r1
 304:	0f 92       	push	r0
 306:	0f b6       	in	r0, 0x3f	; 63
 308:	0f 92       	push	r0
 30a:	11 24       	eor	r1, r1
 30c:	0f 90       	pop	r0
 30e:	0f be       	out	0x3f, r0	; 63
 310:	0f 90       	pop	r0
 312:	1f 90       	pop	r1
 314:	18 95       	reti

00000316 <can_disable_filter>:

// ----------------------------------------------------------------------------
// disable mob

bool at90can_disable_filter(uint8_t number)
{
 316:	cf 93       	push	r28
 318:	df 93       	push	r29
	if (number > (MESSAGE_OBJECTS - 1))
 31a:	86 30       	cpi	r24, 0x06	; 6
 31c:	e8 f0       	brcs	.+58     	; 0x358 <can_disable_filter+0x42>
	{
		if (number == CAN_ALL_FILTER)
 31e:	8f 3f       	cpi	r24, 0xFF	; 255
 320:	09 f0       	breq	.+2      	; 0x324 <can_disable_filter+0xe>
 322:	52 c0       	rjmp	.+164    	; 0x3c8 <can_disable_filter+0xb2>
		{
			// disable interrupts
			CANIE1 = 0;
 324:	10 92 df 00 	sts	0x00DF, r1	; 0x8000df <__TEXT_REGION_LENGTH__+0x7e00df>
			CANIE2 = 0;
 328:	10 92 de 00 	sts	0x00DE, r1	; 0x8000de <__TEXT_REGION_LENGTH__+0x7e00de>
			
			// disable all MObs
			for (uint8_t i = 0; i < MESSAGE_OBJECTS; i++) {
 32c:	80 e0       	ldi	r24, 0x00	; 0
				CANPAGE = (i << 4);
 32e:	cd ee       	ldi	r28, 0xED	; 237
 330:	d0 e0       	ldi	r29, 0x00	; 0
				
				// disable MOb (read-write required)
				CANCDMOB &= 0;
 332:	af ee       	ldi	r26, 0xEF	; 239
 334:	b0 e0       	ldi	r27, 0x00	; 0
				CANSTMOB &= 0;
 336:	ee ee       	ldi	r30, 0xEE	; 238
 338:	f0 e0       	ldi	r31, 0x00	; 0
			CANIE1 = 0;
			CANIE2 = 0;
			
			// disable all MObs
			for (uint8_t i = 0; i < MESSAGE_OBJECTS; i++) {
				CANPAGE = (i << 4);
 33a:	98 2f       	mov	r25, r24
 33c:	92 95       	swap	r25
 33e:	90 7f       	andi	r25, 0xF0	; 240
 340:	98 83       	st	Y, r25
				
				// disable MOb (read-write required)
				CANCDMOB &= 0;
 342:	9c 91       	ld	r25, X
 344:	1c 92       	st	X, r1
				CANSTMOB &= 0;
 346:	90 81       	ld	r25, Z
 348:	10 82       	st	Z, r1
			// disable interrupts
			CANIE1 = 0;
			CANIE2 = 0;
			
			// disable all MObs
			for (uint8_t i = 0; i < MESSAGE_OBJECTS; i++) {
 34a:	8f 5f       	subi	r24, 0xFF	; 255
 34c:	86 30       	cpi	r24, 0x06	; 6
 34e:	a9 f7       	brne	.-22     	; 0x33a <can_disable_filter+0x24>
			#if CAN_RX_BUFFER_SIZE == 0
			_messages_waiting = 0;
			#endif
			
			#if CAN_TX_BUFFER_SIZE == 0
			_free_buffer = MESSAGE_OBJECTS;
 350:	80 93 04 01 	sts	0x0104, r24	; 0x800104 <_free_buffer>
			#endif
			
			return true;
 354:	81 e0       	ldi	r24, 0x01	; 1
 356:	39 c0       	rjmp	.+114    	; 0x3ca <can_disable_filter+0xb4>
// enter standby mode => messages are not transmitted nor received

extern __attribute__ ((gnu_inline)) inline void _enter_standby_mode(void)
{
	// request abort
	CANGCON = (1 << ABRQ);
 358:	90 e8       	ldi	r25, 0x80	; 128
 35a:	90 93 d8 00 	sts	0x00D8, r25	; 0x8000d8 <__TEXT_REGION_LENGTH__+0x7e00d8>
	
	// wait until receiver is not busy
	while (CANGSTA & (1 << RXBSY))
 35e:	e9 ed       	ldi	r30, 0xD9	; 217
 360:	f0 e0       	ldi	r31, 0x00	; 0
 362:	90 81       	ld	r25, Z
 364:	93 fd       	sbrc	r25, 3
 366:	fd cf       	rjmp	.-6      	; 0x362 <can_disable_filter+0x4c>
		;
	
	// request standby mode
	CANGCON = 0;
 368:	10 92 d8 00 	sts	0x00D8, r1	; 0x8000d8 <__TEXT_REGION_LENGTH__+0x7e00d8>
	
	// wait until the CAN Controller has entered standby mode
	while (CANGSTA & (1 << ENFG))
 36c:	e9 ed       	ldi	r30, 0xD9	; 217
 36e:	f0 e0       	ldi	r31, 0x00	; 0
 370:	90 81       	ld	r25, Z
 372:	92 fd       	sbrc	r25, 2
 374:	fd cf       	rjmp	.-6      	; 0x370 <can_disable_filter+0x5a>
	}
	
	// set CAN Controller to standby mode
	_enter_standby_mode();
	
	CANPAGE = number << 4;
 376:	98 2f       	mov	r25, r24
 378:	92 95       	swap	r25
 37a:	90 7f       	andi	r25, 0xF0	; 240
 37c:	cd ee       	ldi	r28, 0xED	; 237
 37e:	d0 e0       	ldi	r29, 0x00	; 0
 380:	98 83       	st	Y, r25
	
	// reset flags
	CANSTMOB &= 0;
 382:	ee ee       	ldi	r30, 0xEE	; 238
 384:	f0 e0       	ldi	r31, 0x00	; 0
 386:	90 81       	ld	r25, Z
 388:	10 82       	st	Z, r1
	CANCDMOB = 0;
 38a:	10 92 ef 00 	sts	0x00EF, r1	; 0x8000ef <__TEXT_REGION_LENGTH__+0x7e00ef>
	
	_disable_mob_interrupt(number);
 38e:	0e 94 7e 00 	call	0xfc	; 0xfc <_disable_mob_interrupt>
// leave standby mode => CAN Controller is connected to CAN Bus

extern __attribute__ ((gnu_inline)) inline void _leave_standby_mode(void)
{
	// save CANPAGE register
	uint8_t canpage = CANPAGE;
 392:	28 81       	ld	r18, Y
	
	// reenable all MObs
	for (uint8_t i=0;i<MESSAGE_OBJECTS;i++) {
 394:	80 e0       	ldi	r24, 0x00	; 0
		CANPAGE = i << 4;
 396:	ad ee       	ldi	r26, 0xED	; 237
 398:	b0 e0       	ldi	r27, 0x00	; 0
		CANCDMOB = CANCDMOB;
 39a:	ef ee       	ldi	r30, 0xEF	; 239
 39c:	f0 e0       	ldi	r31, 0x00	; 0
	// save CANPAGE register
	uint8_t canpage = CANPAGE;
	
	// reenable all MObs
	for (uint8_t i=0;i<MESSAGE_OBJECTS;i++) {
		CANPAGE = i << 4;
 39e:	98 2f       	mov	r25, r24
 3a0:	92 95       	swap	r25
 3a2:	90 7f       	andi	r25, 0xF0	; 240
 3a4:	9c 93       	st	X, r25
		CANCDMOB = CANCDMOB;
 3a6:	90 81       	ld	r25, Z
 3a8:	90 83       	st	Z, r25
{
	// save CANPAGE register
	uint8_t canpage = CANPAGE;
	
	// reenable all MObs
	for (uint8_t i=0;i<MESSAGE_OBJECTS;i++) {
 3aa:	8f 5f       	subi	r24, 0xFF	; 255
 3ac:	86 30       	cpi	r24, 0x06	; 6
 3ae:	b9 f7       	brne	.-18     	; 0x39e <can_disable_filter+0x88>
		CANPAGE = i << 4;
		CANCDMOB = CANCDMOB;
	}
	
	// restore CANPAGE
	CANPAGE = canpage;
 3b0:	20 93 ed 00 	sts	0x00ED, r18	; 0x8000ed <__TEXT_REGION_LENGTH__+0x7e00ed>
	
	// request normal mode
	CANGCON = (1 << ENASTB);
 3b4:	82 e0       	ldi	r24, 0x02	; 2
 3b6:	80 93 d8 00 	sts	0x00D8, r24	; 0x8000d8 <__TEXT_REGION_LENGTH__+0x7e00d8>
	
	// wait until the CAN Controller has left standby mode
	while ((CANGSTA & (1 << ENFG)) == 0)
 3ba:	e9 ed       	ldi	r30, 0xD9	; 217
 3bc:	f0 e0       	ldi	r31, 0x00	; 0
 3be:	80 81       	ld	r24, Z
 3c0:	82 ff       	sbrs	r24, 2
 3c2:	fd cf       	rjmp	.-6      	; 0x3be <can_disable_filter+0xa8>
	
	// re-enable CAN Controller 
	_leave_standby_mode();
	
	return true;
 3c4:	81 e0       	ldi	r24, 0x01	; 1
 3c6:	01 c0       	rjmp	.+2      	; 0x3ca <can_disable_filter+0xb4>
			
			return true;
		}
		
		// it is only possible to serve a maximum of MESSAGE_OBJECTS filters
		return false;
 3c8:	80 e0       	ldi	r24, 0x00	; 0
	
	// re-enable CAN Controller 
	_leave_standby_mode();
	
	return true;
}
 3ca:	df 91       	pop	r29
 3cc:	cf 91       	pop	r28
 3ce:	08 95       	ret

000003d0 <at90can_copy_mob_to_message>:

#include "at90can_private.h"
#ifdef	SUPPORT_FOR_AT90CAN__

void at90can_copy_mob_to_message(can_t *msg)
{
 3d0:	0f 93       	push	r16
 3d2:	1f 93       	push	r17
 3d4:	cf 93       	push	r28
 3d6:	df 93       	push	r29
 3d8:	00 d0       	rcall	.+0      	; 0x3da <at90can_copy_mob_to_message+0xa>
 3da:	00 d0       	rcall	.+0      	; 0x3dc <at90can_copy_mob_to_message+0xc>
 3dc:	cd b7       	in	r28, 0x3d	; 61
 3de:	de b7       	in	r29, 0x3e	; 62
 3e0:	8c 01       	movw	r16, r24
	// read status
	uint8_t cancdmob = CANCDMOB;
 3e2:	80 91 ef 00 	lds	r24, 0x00EF	; 0x8000ef <__TEXT_REGION_LENGTH__+0x7e00ef>
	
	// read length
	msg->length = cancdmob & 0x0f;
 3e6:	98 2f       	mov	r25, r24
 3e8:	9f 70       	andi	r25, 0x0F	; 15
 3ea:	d8 01       	movw	r26, r16
 3ec:	15 96       	adiw	r26, 0x05	; 5
 3ee:	9c 93       	st	X, r25
	
	#if SUPPORT_EXTENDED_CANID
	
	if (cancdmob & (1 << IDE))
 3f0:	84 ff       	sbrs	r24, 4
 3f2:	21 c0       	rjmp	.+66     	; 0x436 <__LOCK_REGION_LENGTH__+0x36>
	{
		// extended identifier
		uint32_t tmp;
		uint8_t *ptr = (uint8_t *) &tmp;
		
		*ptr       = CANIDT4;
 3f4:	80 91 f0 00 	lds	r24, 0x00F0	; 0x8000f0 <__TEXT_REGION_LENGTH__+0x7e00f0>
 3f8:	89 83       	std	Y+1, r24	; 0x01
		*(ptr + 1) = CANIDT3;
 3fa:	80 91 f1 00 	lds	r24, 0x00F1	; 0x8000f1 <__TEXT_REGION_LENGTH__+0x7e00f1>
 3fe:	8a 83       	std	Y+2, r24	; 0x02
		*(ptr + 2) = CANIDT2;
 400:	80 91 f2 00 	lds	r24, 0x00F2	; 0x8000f2 <__TEXT_REGION_LENGTH__+0x7e00f2>
 404:	8b 83       	std	Y+3, r24	; 0x03
		*(ptr + 3) = CANIDT1;
 406:	80 91 f3 00 	lds	r24, 0x00F3	; 0x8000f3 <__TEXT_REGION_LENGTH__+0x7e00f3>
 40a:	8c 83       	std	Y+4, r24	; 0x04
		
		msg->id = tmp >> 3;
 40c:	49 81       	ldd	r20, Y+1	; 0x01
 40e:	5a 81       	ldd	r21, Y+2	; 0x02
 410:	6b 81       	ldd	r22, Y+3	; 0x03
 412:	7c 81       	ldd	r23, Y+4	; 0x04
 414:	68 94       	set
 416:	12 f8       	bld	r1, 2
 418:	76 95       	lsr	r23
 41a:	67 95       	ror	r22
 41c:	57 95       	ror	r21
 41e:	47 95       	ror	r20
 420:	16 94       	lsr	r1
 422:	d1 f7       	brne	.-12     	; 0x418 <__LOCK_REGION_LENGTH__+0x18>
 424:	f8 01       	movw	r30, r16
 426:	40 83       	st	Z, r20
 428:	51 83       	std	Z+1, r21	; 0x01
 42a:	62 83       	std	Z+2, r22	; 0x02
 42c:	73 83       	std	Z+3, r23	; 0x03
		msg->id |= (uint32_t) CANIDT3 << 5;
		msg->id |= (uint32_t) CANIDT2 << 13;
		msg->id |= (uint32_t) CANIDT1 << 21;
		*/
		
		msg->flags.extended = 1;
 42e:	84 81       	ldd	r24, Z+4	; 0x04
 430:	82 60       	ori	r24, 0x02	; 2
 432:	84 83       	std	Z+4, r24	; 0x04
 434:	1d c0       	rjmp	.+58     	; 0x470 <__LOCK_REGION_LENGTH__+0x70>
	else
	{
		// standard identifier
		uint16_t id;
		
		id  = (uint8_t)  CANIDT2 >> 5;
 436:	80 91 f2 00 	lds	r24, 0x00F2	; 0x8000f2 <__TEXT_REGION_LENGTH__+0x7e00f2>
 43a:	82 95       	swap	r24
 43c:	86 95       	lsr	r24
 43e:	87 70       	andi	r24, 0x07	; 7
		id |= (uint16_t) CANIDT1 << 3;
 440:	40 91 f3 00 	lds	r20, 0x00F3	; 0x8000f3 <__TEXT_REGION_LENGTH__+0x7e00f3>
 444:	50 e0       	ldi	r21, 0x00	; 0
 446:	44 0f       	add	r20, r20
 448:	55 1f       	adc	r21, r21
 44a:	44 0f       	add	r20, r20
 44c:	55 1f       	adc	r21, r21
 44e:	44 0f       	add	r20, r20
 450:	55 1f       	adc	r21, r21
 452:	48 2b       	or	r20, r24
		
		msg->id = (uint32_t) id;
 454:	60 e0       	ldi	r22, 0x00	; 0
 456:	70 e0       	ldi	r23, 0x00	; 0
 458:	d8 01       	movw	r26, r16
 45a:	4d 93       	st	X+, r20
 45c:	5d 93       	st	X+, r21
 45e:	6d 93       	st	X+, r22
 460:	7c 93       	st	X, r23
 462:	13 97       	sbiw	r26, 0x03	; 3
		msg->flags.extended = 0;
 464:	14 96       	adiw	r26, 0x04	; 4
 466:	8c 91       	ld	r24, X
 468:	14 97       	sbiw	r26, 0x04	; 4
 46a:	8d 7f       	andi	r24, 0xFD	; 253
 46c:	14 96       	adiw	r26, 0x04	; 4
 46e:	8c 93       	st	X, r24
		msg->id |= (uint16_t) CANIDT1 << 3;
	}
	
	#endif
	
	if (CANIDT4 & (1 << RTRTAG)) {
 470:	80 91 f0 00 	lds	r24, 0x00F0	; 0x8000f0 <__TEXT_REGION_LENGTH__+0x7e00f0>
 474:	82 ff       	sbrs	r24, 2
 476:	05 c0       	rjmp	.+10     	; 0x482 <__LOCK_REGION_LENGTH__+0x82>
		msg->flags.rtr = 1;
 478:	f8 01       	movw	r30, r16
 47a:	84 81       	ldd	r24, Z+4	; 0x04
 47c:	81 60       	ori	r24, 0x01	; 1
 47e:	84 83       	std	Z+4, r24	; 0x04
 480:	1d c0       	rjmp	.+58     	; 0x4bc <__LOCK_REGION_LENGTH__+0xbc>
	}
	else {
		msg->flags.rtr = 0;
 482:	d8 01       	movw	r26, r16
 484:	14 96       	adiw	r26, 0x04	; 4
 486:	8c 91       	ld	r24, X
 488:	14 97       	sbiw	r26, 0x04	; 4
 48a:	8e 7f       	andi	r24, 0xFE	; 254
 48c:	14 96       	adiw	r26, 0x04	; 4
 48e:	8c 93       	st	X, r24
 490:	14 97       	sbiw	r26, 0x04	; 4
		
		// read data
		uint8_t *p = msg->data;
 492:	c8 01       	movw	r24, r16
 494:	06 96       	adiw	r24, 0x06	; 6
		for (uint8_t i = 0;i < msg->length;i++) {
 496:	15 96       	adiw	r26, 0x05	; 5
 498:	2c 91       	ld	r18, X
 49a:	22 23       	and	r18, r18
 49c:	79 f0       	breq	.+30     	; 0x4bc <__LOCK_REGION_LENGTH__+0xbc>
 49e:	48 2f       	mov	r20, r24
 4a0:	e8 2f       	mov	r30, r24
 4a2:	f9 2f       	mov	r31, r25
			*p++ = CANMSG;
 4a4:	2a ef       	ldi	r18, 0xFA	; 250
 4a6:	30 e0       	ldi	r19, 0x00	; 0
 4a8:	d9 01       	movw	r26, r18
 4aa:	8c 91       	ld	r24, X
 4ac:	81 93       	st	Z+, r24
 4ae:	8e 2f       	mov	r24, r30
 4b0:	84 1b       	sub	r24, r20
	else {
		msg->flags.rtr = 0;
		
		// read data
		uint8_t *p = msg->data;
		for (uint8_t i = 0;i < msg->length;i++) {
 4b2:	d8 01       	movw	r26, r16
 4b4:	15 96       	adiw	r26, 0x05	; 5
 4b6:	9c 91       	ld	r25, X
 4b8:	89 17       	cp	r24, r25
 4ba:	b0 f3       	brcs	.-20     	; 0x4a8 <__LOCK_REGION_LENGTH__+0xa8>
			*p++ = CANMSG;
		}
	}
	
	#if SUPPORT_TIMESTAMPS
	msg->timestamp = CANSTM;
 4bc:	80 91 f8 00 	lds	r24, 0x00F8	; 0x8000f8 <__TEXT_REGION_LENGTH__+0x7e00f8>
 4c0:	90 91 f9 00 	lds	r25, 0x00F9	; 0x8000f9 <__TEXT_REGION_LENGTH__+0x7e00f9>
 4c4:	f8 01       	movw	r30, r16
 4c6:	97 87       	std	Z+15, r25	; 0x0f
 4c8:	86 87       	std	Z+14, r24	; 0x0e
	#endif
}
 4ca:	0f 90       	pop	r0
 4cc:	0f 90       	pop	r0
 4ce:	0f 90       	pop	r0
 4d0:	0f 90       	pop	r0
 4d2:	df 91       	pop	r29
 4d4:	cf 91       	pop	r28
 4d6:	1f 91       	pop	r17
 4d8:	0f 91       	pop	r16
 4da:	08 95       	ret

000004dc <at90can_copy_message_to_mob>:
 * \brief	Copy data form a message in RAM to the actual registers
 * 
 * \warning this function assumes CANPAGE to be set properly before the call
 */
void at90can_copy_message_to_mob(const can_t *msg)
{
 4dc:	0f 93       	push	r16
 4de:	1f 93       	push	r17
 4e0:	cf 93       	push	r28
 4e2:	df 93       	push	r29
 4e4:	00 d0       	rcall	.+0      	; 0x4e6 <at90can_copy_message_to_mob+0xa>
 4e6:	00 d0       	rcall	.+0      	; 0x4e8 <at90can_copy_message_to_mob+0xc>
 4e8:	cd b7       	in	r28, 0x3d	; 61
 4ea:	de b7       	in	r29, 0x3e	; 62
 4ec:	8c 01       	movw	r16, r24
	// write DLC (Data Length Code)
	CANCDMOB = msg->length;
 4ee:	dc 01       	movw	r26, r24
 4f0:	15 96       	adiw	r26, 0x05	; 5
 4f2:	8c 91       	ld	r24, X
 4f4:	15 97       	sbiw	r26, 0x05	; 5
 4f6:	80 93 ef 00 	sts	0x00EF, r24	; 0x8000ef <__TEXT_REGION_LENGTH__+0x7e00ef>
	
	#if SUPPORT_EXTENDED_CANID
	
	if (msg->flags.extended) {
 4fa:	14 96       	adiw	r26, 0x04	; 4
 4fc:	8c 91       	ld	r24, X
 4fe:	14 97       	sbiw	r26, 0x04	; 4
 500:	81 ff       	sbrs	r24, 1
 502:	29 c0       	rjmp	.+82     	; 0x556 <__stack+0x57>
		// extended CAN ID
		CANCDMOB |= (1 << IDE);
 504:	ef ee       	ldi	r30, 0xEF	; 239
 506:	f0 e0       	ldi	r31, 0x00	; 0
 508:	80 81       	ld	r24, Z
 50a:	80 61       	ori	r24, 0x10	; 16
 50c:	80 83       	st	Z, r24
		
		CANIDT4 = (uint8_t)  msg->id << 3;
 50e:	8c 91       	ld	r24, X
 510:	88 0f       	add	r24, r24
 512:	88 0f       	add	r24, r24
 514:	88 0f       	add	r24, r24
 516:	80 93 f0 00 	sts	0x00F0, r24	; 0x8000f0 <__TEXT_REGION_LENGTH__+0x7e00f0>
		
		uint32_t temp = msg->id << 3;
 51a:	4d 91       	ld	r20, X+
 51c:	5d 91       	ld	r21, X+
 51e:	6d 91       	ld	r22, X+
 520:	7c 91       	ld	r23, X
 522:	44 0f       	add	r20, r20
 524:	55 1f       	adc	r21, r21
 526:	66 1f       	adc	r22, r22
 528:	77 1f       	adc	r23, r23
 52a:	44 0f       	add	r20, r20
 52c:	55 1f       	adc	r21, r21
 52e:	66 1f       	adc	r22, r22
 530:	77 1f       	adc	r23, r23
 532:	44 0f       	add	r20, r20
 534:	55 1f       	adc	r21, r21
 536:	66 1f       	adc	r22, r22
 538:	77 1f       	adc	r23, r23
 53a:	49 83       	std	Y+1, r20	; 0x01
 53c:	5a 83       	std	Y+2, r21	; 0x02
 53e:	6b 83       	std	Y+3, r22	; 0x03
 540:	7c 83       	std	Y+4, r23	; 0x04
		uint8_t *ptr = (uint8_t *) &temp;
		
		CANIDT3 = *(ptr + 1);
 542:	8a 81       	ldd	r24, Y+2	; 0x02
 544:	80 93 f1 00 	sts	0x00F1, r24	; 0x8000f1 <__TEXT_REGION_LENGTH__+0x7e00f1>
		CANIDT2 = *(ptr + 2);
 548:	8b 81       	ldd	r24, Y+3	; 0x03
 54a:	80 93 f2 00 	sts	0x00F2, r24	; 0x8000f2 <__TEXT_REGION_LENGTH__+0x7e00f2>
		CANIDT1 = *(ptr + 3);
 54e:	8c 81       	ldd	r24, Y+4	; 0x04
 550:	80 93 f3 00 	sts	0x00F3, r24	; 0x8000f3 <__TEXT_REGION_LENGTH__+0x7e00f3>
 554:	15 c0       	rjmp	.+42     	; 0x580 <__stack+0x81>
	}
	else {
		// standard CAN ID
		CANIDT4 = 0;
 556:	10 92 f0 00 	sts	0x00F0, r1	; 0x8000f0 <__TEXT_REGION_LENGTH__+0x7e00f0>
		CANIDT3 = 0;
 55a:	10 92 f1 00 	sts	0x00F1, r1	; 0x8000f1 <__TEXT_REGION_LENGTH__+0x7e00f1>
		CANIDT2 = (uint8_t)  msg->id << 5;
 55e:	f8 01       	movw	r30, r16
 560:	80 81       	ld	r24, Z
 562:	82 95       	swap	r24
 564:	88 0f       	add	r24, r24
 566:	80 7e       	andi	r24, 0xE0	; 224
 568:	80 93 f2 00 	sts	0x00F2, r24	; 0x8000f2 <__TEXT_REGION_LENGTH__+0x7e00f2>
		CANIDT1 = (uint16_t) msg->id >> 3;
 56c:	80 81       	ld	r24, Z
 56e:	91 81       	ldd	r25, Z+1	; 0x01
 570:	96 95       	lsr	r25
 572:	87 95       	ror	r24
 574:	96 95       	lsr	r25
 576:	87 95       	ror	r24
 578:	96 95       	lsr	r25
 57a:	87 95       	ror	r24
 57c:	80 93 f3 00 	sts	0x00F3, r24	; 0x8000f3 <__TEXT_REGION_LENGTH__+0x7e00f3>
	CANIDT2 = (uint8_t)  msg->id << 5;
	CANIDT1 = (uint16_t) msg->id >> 3;
	
	#endif
	
	if (msg->flags.rtr) {
 580:	d8 01       	movw	r26, r16
 582:	14 96       	adiw	r26, 0x04	; 4
 584:	8c 91       	ld	r24, X
 586:	80 ff       	sbrs	r24, 0
 588:	06 c0       	rjmp	.+12     	; 0x596 <__stack+0x97>
		CANIDT4 |= (1<<RTRTAG);
 58a:	e0 ef       	ldi	r30, 0xF0	; 240
 58c:	f0 e0       	ldi	r31, 0x00	; 0
 58e:	80 81       	ld	r24, Z
 590:	84 60       	ori	r24, 0x04	; 4
 592:	80 83       	st	Z, r24
 594:	15 c0       	rjmp	.+42     	; 0x5c0 <__stack+0xc1>
	}
	else {
		const uint8_t *p = msg->data;
 596:	c8 01       	movw	r24, r16
 598:	06 96       	adiw	r24, 0x06	; 6
		for (uint8_t i = 0;i < msg->length;i++) {
 59a:	f8 01       	movw	r30, r16
 59c:	25 81       	ldd	r18, Z+5	; 0x05
 59e:	22 23       	and	r18, r18
 5a0:	79 f0       	breq	.+30     	; 0x5c0 <__stack+0xc1>
 5a2:	48 2f       	mov	r20, r24
 5a4:	e8 2f       	mov	r30, r24
 5a6:	f9 2f       	mov	r31, r25
			CANMSG = *p++;
 5a8:	2a ef       	ldi	r18, 0xFA	; 250
 5aa:	30 e0       	ldi	r19, 0x00	; 0
 5ac:	81 91       	ld	r24, Z+
 5ae:	d9 01       	movw	r26, r18
 5b0:	8c 93       	st	X, r24
 5b2:	8e 2f       	mov	r24, r30
 5b4:	84 1b       	sub	r24, r20
	if (msg->flags.rtr) {
		CANIDT4 |= (1<<RTRTAG);
	}
	else {
		const uint8_t *p = msg->data;
		for (uint8_t i = 0;i < msg->length;i++) {
 5b6:	d8 01       	movw	r26, r16
 5b8:	15 96       	adiw	r26, 0x05	; 5
 5ba:	9c 91       	ld	r25, X
 5bc:	89 17       	cp	r24, r25
 5be:	b0 f3       	brcs	.-20     	; 0x5ac <__stack+0xad>
			CANMSG = *p++;
		}
	}
}
 5c0:	0f 90       	pop	r0
 5c2:	0f 90       	pop	r0
 5c4:	0f 90       	pop	r0
 5c6:	0f 90       	pop	r0
 5c8:	df 91       	pop	r29
 5ca:	cf 91       	pop	r28
 5cc:	1f 91       	pop	r17
 5ce:	0f 91       	pop	r16
 5d0:	08 95       	ret

000005d2 <can_send_message>:

// ----------------------------------------------------------------------------
uint8_t at90can_send_message(const can_t *msg)
{
 5d2:	0f 93       	push	r16
 5d4:	1f 93       	push	r17
 5d6:	cf 93       	push	r28
 5d8:	8c 01       	movw	r16, r24
	// check if there is any free MOb
	uint8_t mob = _find_free_mob();
 5da:	0e 94 5e 00 	call	0xbc	; 0xbc <_find_free_mob>
 5de:	c8 2f       	mov	r28, r24
	if (mob >= MESSAGE_OBJECTS)
 5e0:	86 30       	cpi	r24, 0x06	; 6
 5e2:	f0 f4       	brcc	.+60     	; 0x620 <can_send_message+0x4e>
		return 0;
	
	// load corresponding MOb page ...
	CANPAGE = (mob << 4);
 5e4:	82 95       	swap	r24
 5e6:	80 7f       	andi	r24, 0xF0	; 240
 5e8:	80 93 ed 00 	sts	0x00ED, r24	; 0x8000ed <__TEXT_REGION_LENGTH__+0x7e00ed>
	
	// clear flags
	CANSTMOB &= 0;
 5ec:	ee ee       	ldi	r30, 0xEE	; 238
 5ee:	f0 e0       	ldi	r31, 0x00	; 0
 5f0:	80 81       	ld	r24, Z
 5f2:	10 82       	st	Z, r1
	
	// ... and copy the data
	at90can_copy_message_to_mob( msg );
 5f4:	c8 01       	movw	r24, r16
 5f6:	0e 94 6e 02 	call	0x4dc	; 0x4dc <at90can_copy_message_to_mob>
	
	// enable interrupt
	_enable_mob_interrupt(mob);
 5fa:	8c 2f       	mov	r24, r28
 5fc:	0e 94 a1 00 	call	0x142	; 0x142 <_enable_mob_interrupt>
	
	ENTER_CRITICAL_SECTION;
 600:	9f b7       	in	r25, 0x3f	; 63
    return 1;
}

static __inline__ uint8_t __iCliRetVal(void)
{
    cli();
 602:	f8 94       	cli
	#if CAN_TX_BUFFER_SIZE == 0
		_free_buffer--;
 604:	80 91 04 01 	lds	r24, 0x0104	; 0x800104 <_free_buffer>
 608:	81 50       	subi	r24, 0x01	; 1
 60a:	80 93 04 01 	sts	0x0104, r24	; 0x800104 <_free_buffer>
    (void)__s;
}

static __inline__ void __iRestore(const  uint8_t *__s)
{
    SREG = *__s;
 60e:	9f bf       	out	0x3f, r25	; 63
		_transmission_in_progress = 1;
	#endif
	LEAVE_CRITICAL_SECTION;
	
	// enable transmission
	CANCDMOB |= (1<<CONMOB0);
 610:	ef ee       	ldi	r30, 0xEF	; 239
 612:	f0 e0       	ldi	r31, 0x00	; 0
 614:	80 81       	ld	r24, Z
 616:	80 64       	ori	r24, 0x40	; 64
 618:	80 83       	st	Z, r24
	
	return (mob + 1);
 61a:	81 e0       	ldi	r24, 0x01	; 1
 61c:	8c 0f       	add	r24, r28
 61e:	01 c0       	rjmp	.+2      	; 0x622 <can_send_message+0x50>
uint8_t at90can_send_message(const can_t *msg)
{
	// check if there is any free MOb
	uint8_t mob = _find_free_mob();
	if (mob >= MESSAGE_OBJECTS)
		return 0;
 620:	80 e0       	ldi	r24, 0x00	; 0
	
	// enable transmission
	CANCDMOB |= (1<<CONMOB0);
	
	return (mob + 1);
}
 622:	cf 91       	pop	r28
 624:	1f 91       	pop	r17
 626:	0f 91       	pop	r16
 628:	08 95       	ret

0000062a <can_set_filter>:
#include "at90can_private.h"
#ifdef	SUPPORT_FOR_AT90CAN__

// ----------------------------------------------------------------------------
bool at90can_set_filter(uint8_t number, const can_filter_t *filter)
{
 62a:	db 01       	movw	r26, r22
	if (number > (MESSAGE_OBJECTS - 1)) {
 62c:	86 30       	cpi	r24, 0x06	; 6
 62e:	08 f0       	brcs	.+2      	; 0x632 <can_set_filter+0x8>
 630:	01 c1       	rjmp	.+514    	; 0x834 <can_set_filter+0x20a>
// enter standby mode => messages are not transmitted nor received

extern __attribute__ ((gnu_inline)) inline void _enter_standby_mode(void)
{
	// request abort
	CANGCON = (1 << ABRQ);
 632:	90 e8       	ldi	r25, 0x80	; 128
 634:	90 93 d8 00 	sts	0x00D8, r25	; 0x8000d8 <__TEXT_REGION_LENGTH__+0x7e00d8>
	
	// wait until receiver is not busy
	while (CANGSTA & (1 << RXBSY))
 638:	e9 ed       	ldi	r30, 0xD9	; 217
 63a:	f0 e0       	ldi	r31, 0x00	; 0
 63c:	90 81       	ld	r25, Z
 63e:	93 fd       	sbrc	r25, 3
 640:	fd cf       	rjmp	.-6      	; 0x63c <can_set_filter+0x12>
		;
	
	// request standby mode
	CANGCON = 0;
 642:	10 92 d8 00 	sts	0x00D8, r1	; 0x8000d8 <__TEXT_REGION_LENGTH__+0x7e00d8>
	
	// wait until the CAN Controller has entered standby mode
	while (CANGSTA & (1 << ENFG))
 646:	e9 ed       	ldi	r30, 0xD9	; 217
 648:	f0 e0       	ldi	r31, 0x00	; 0
 64a:	90 81       	ld	r25, Z
 64c:	92 fd       	sbrc	r25, 2
 64e:	fd cf       	rjmp	.-6      	; 0x64a <can_set_filter+0x20>
	}
	
	// set CAN Controller to standby mode
	_enter_standby_mode();
	
	CANPAGE = number << 4;
 650:	98 2f       	mov	r25, r24
 652:	92 95       	swap	r25
 654:	90 7f       	andi	r25, 0xF0	; 240
 656:	90 93 ed 00 	sts	0x00ED, r25	; 0x8000ed <__TEXT_REGION_LENGTH__+0x7e00ed>
	
	CANSTMOB = 0;
 65a:	10 92 ee 00 	sts	0x00EE, r1	; 0x8000ee <__TEXT_REGION_LENGTH__+0x7e00ee>
	CANCDMOB = 0;
 65e:	10 92 ef 00 	sts	0x00EF, r1	; 0x8000ef <__TEXT_REGION_LENGTH__+0x7e00ef>
	
	#if SUPPORT_EXTENDED_CANID
	
	if (filter->flags.extended == 0x3)
 662:	18 96       	adiw	r26, 0x08	; 8
 664:	9c 91       	ld	r25, X
 666:	18 97       	sbiw	r26, 0x08	; 8
 668:	9c 70       	andi	r25, 0x0C	; 12
 66a:	9c 30       	cpi	r25, 0x0C	; 12
 66c:	09 f0       	breq	.+2      	; 0x670 <can_set_filter+0x46>
 66e:	76 c0       	rjmp	.+236    	; 0x75c <can_set_filter+0x132>
	{
		// extended identifier
		CANIDT4 = (uint8_t)  filter->id << 3;
 670:	9c 91       	ld	r25, X
 672:	99 0f       	add	r25, r25
 674:	99 0f       	add	r25, r25
 676:	99 0f       	add	r25, r25
 678:	90 93 f0 00 	sts	0x00F0, r25	; 0x8000f0 <__TEXT_REGION_LENGTH__+0x7e00f0>
		CANIDT3 = 			 filter->id >> 5;
 67c:	4d 91       	ld	r20, X+
 67e:	5d 91       	ld	r21, X+
 680:	6d 91       	ld	r22, X+
 682:	7c 91       	ld	r23, X
 684:	13 97       	sbiw	r26, 0x03	; 3
 686:	68 94       	set
 688:	14 f8       	bld	r1, 4
 68a:	76 95       	lsr	r23
 68c:	67 95       	ror	r22
 68e:	57 95       	ror	r21
 690:	47 95       	ror	r20
 692:	16 94       	lsr	r1
 694:	d1 f7       	brne	.-12     	; 0x68a <can_set_filter+0x60>
 696:	40 93 f1 00 	sts	0x00F1, r20	; 0x8000f1 <__TEXT_REGION_LENGTH__+0x7e00f1>
		CANIDT2 =            filter->id >> 13;
 69a:	4d 91       	ld	r20, X+
 69c:	5d 91       	ld	r21, X+
 69e:	6d 91       	ld	r22, X+
 6a0:	7c 91       	ld	r23, X
 6a2:	13 97       	sbiw	r26, 0x03	; 3
 6a4:	03 2e       	mov	r0, r19
 6a6:	3d e0       	ldi	r19, 0x0D	; 13
 6a8:	76 95       	lsr	r23
 6aa:	67 95       	ror	r22
 6ac:	57 95       	ror	r21
 6ae:	47 95       	ror	r20
 6b0:	3a 95       	dec	r19
 6b2:	d1 f7       	brne	.-12     	; 0x6a8 <can_set_filter+0x7e>
 6b4:	30 2d       	mov	r19, r0
 6b6:	40 93 f2 00 	sts	0x00F2, r20	; 0x8000f2 <__TEXT_REGION_LENGTH__+0x7e00f2>
		CANIDT1 =            filter->id >> 21;
 6ba:	4d 91       	ld	r20, X+
 6bc:	5d 91       	ld	r21, X+
 6be:	6d 91       	ld	r22, X+
 6c0:	7c 91       	ld	r23, X
 6c2:	13 97       	sbiw	r26, 0x03	; 3
 6c4:	03 2e       	mov	r0, r19
 6c6:	35 e1       	ldi	r19, 0x15	; 21
 6c8:	76 95       	lsr	r23
 6ca:	67 95       	ror	r22
 6cc:	57 95       	ror	r21
 6ce:	47 95       	ror	r20
 6d0:	3a 95       	dec	r19
 6d2:	d1 f7       	brne	.-12     	; 0x6c8 <can_set_filter+0x9e>
 6d4:	30 2d       	mov	r19, r0
 6d6:	40 93 f3 00 	sts	0x00F3, r20	; 0x8000f3 <__TEXT_REGION_LENGTH__+0x7e00f3>
		
		CANIDM4 = ((uint8_t) filter->mask << 3) | (1 << IDEMSK);
 6da:	14 96       	adiw	r26, 0x04	; 4
 6dc:	9c 91       	ld	r25, X
 6de:	14 97       	sbiw	r26, 0x04	; 4
 6e0:	99 0f       	add	r25, r25
 6e2:	99 0f       	add	r25, r25
 6e4:	99 0f       	add	r25, r25
 6e6:	91 60       	ori	r25, 0x01	; 1
 6e8:	90 93 f4 00 	sts	0x00F4, r25	; 0x8000f4 <__TEXT_REGION_LENGTH__+0x7e00f4>
		CANIDM3 = 			 filter->mask >> 5;
 6ec:	14 96       	adiw	r26, 0x04	; 4
 6ee:	4d 91       	ld	r20, X+
 6f0:	5d 91       	ld	r21, X+
 6f2:	6d 91       	ld	r22, X+
 6f4:	7c 91       	ld	r23, X
 6f6:	17 97       	sbiw	r26, 0x07	; 7
 6f8:	68 94       	set
 6fa:	14 f8       	bld	r1, 4
 6fc:	76 95       	lsr	r23
 6fe:	67 95       	ror	r22
 700:	57 95       	ror	r21
 702:	47 95       	ror	r20
 704:	16 94       	lsr	r1
 706:	d1 f7       	brne	.-12     	; 0x6fc <can_set_filter+0xd2>
 708:	40 93 f5 00 	sts	0x00F5, r20	; 0x8000f5 <__TEXT_REGION_LENGTH__+0x7e00f5>
		CANIDM2 =            filter->mask >> 13;
 70c:	14 96       	adiw	r26, 0x04	; 4
 70e:	4d 91       	ld	r20, X+
 710:	5d 91       	ld	r21, X+
 712:	6d 91       	ld	r22, X+
 714:	7c 91       	ld	r23, X
 716:	17 97       	sbiw	r26, 0x07	; 7
 718:	03 2e       	mov	r0, r19
 71a:	3d e0       	ldi	r19, 0x0D	; 13
 71c:	76 95       	lsr	r23
 71e:	67 95       	ror	r22
 720:	57 95       	ror	r21
 722:	47 95       	ror	r20
 724:	3a 95       	dec	r19
 726:	d1 f7       	brne	.-12     	; 0x71c <can_set_filter+0xf2>
 728:	30 2d       	mov	r19, r0
 72a:	40 93 f6 00 	sts	0x00F6, r20	; 0x8000f6 <__TEXT_REGION_LENGTH__+0x7e00f6>
		CANIDM1 =            filter->mask >> 21;
 72e:	14 96       	adiw	r26, 0x04	; 4
 730:	4d 91       	ld	r20, X+
 732:	5d 91       	ld	r21, X+
 734:	6d 91       	ld	r22, X+
 736:	7c 91       	ld	r23, X
 738:	17 97       	sbiw	r26, 0x07	; 7
 73a:	03 2e       	mov	r0, r19
 73c:	35 e1       	ldi	r19, 0x15	; 21
 73e:	76 95       	lsr	r23
 740:	67 95       	ror	r22
 742:	57 95       	ror	r21
 744:	47 95       	ror	r20
 746:	3a 95       	dec	r19
 748:	d1 f7       	brne	.-12     	; 0x73e <can_set_filter+0x114>
 74a:	30 2d       	mov	r19, r0
 74c:	40 93 f7 00 	sts	0x00F7, r20	; 0x8000f7 <__TEXT_REGION_LENGTH__+0x7e00f7>
		
		CANCDMOB |= (1 << IDE);
 750:	ef ee       	ldi	r30, 0xEF	; 239
 752:	f0 e0       	ldi	r31, 0x00	; 0
 754:	90 81       	ld	r25, Z
 756:	90 61       	ori	r25, 0x10	; 16
 758:	90 83       	st	Z, r25
 75a:	36 c0       	rjmp	.+108    	; 0x7c8 <can_set_filter+0x19e>
	}
	else {
		CANIDT4 = 0;
 75c:	10 92 f0 00 	sts	0x00F0, r1	; 0x8000f0 <__TEXT_REGION_LENGTH__+0x7e00f0>
		CANIDT3 = 0;
 760:	10 92 f1 00 	sts	0x00F1, r1	; 0x8000f1 <__TEXT_REGION_LENGTH__+0x7e00f1>
		CANIDT2 = (uint8_t)  filter->id << 5;
 764:	9c 91       	ld	r25, X
 766:	92 95       	swap	r25
 768:	99 0f       	add	r25, r25
 76a:	90 7e       	andi	r25, 0xE0	; 224
 76c:	90 93 f2 00 	sts	0x00F2, r25	; 0x8000f2 <__TEXT_REGION_LENGTH__+0x7e00f2>
		CANIDT1 = (uint16_t) filter->id >> 3;
 770:	2d 91       	ld	r18, X+
 772:	3c 91       	ld	r19, X
 774:	11 97       	sbiw	r26, 0x01	; 1
 776:	36 95       	lsr	r19
 778:	27 95       	ror	r18
 77a:	36 95       	lsr	r19
 77c:	27 95       	ror	r18
 77e:	36 95       	lsr	r19
 780:	27 95       	ror	r18
 782:	20 93 f3 00 	sts	0x00F3, r18	; 0x8000f3 <__TEXT_REGION_LENGTH__+0x7e00f3>
		
		if (filter->flags.extended) {
 786:	18 96       	adiw	r26, 0x08	; 8
 788:	9c 91       	ld	r25, X
 78a:	18 97       	sbiw	r26, 0x08	; 8
 78c:	9c 70       	andi	r25, 0x0C	; 12
 78e:	21 f0       	breq	.+8      	; 0x798 <can_set_filter+0x16e>
			CANIDM4 = (1 << IDEMSK);		// receive only standard frames
 790:	91 e0       	ldi	r25, 0x01	; 1
 792:	90 93 f4 00 	sts	0x00F4, r25	; 0x8000f4 <__TEXT_REGION_LENGTH__+0x7e00f4>
 796:	02 c0       	rjmp	.+4      	; 0x79c <can_set_filter+0x172>
		} else {
			CANIDM4 = 0;					// receive all frames
 798:	10 92 f4 00 	sts	0x00F4, r1	; 0x8000f4 <__TEXT_REGION_LENGTH__+0x7e00f4>
		}
		
		CANIDM3 = 0;
 79c:	10 92 f5 00 	sts	0x00F5, r1	; 0x8000f5 <__TEXT_REGION_LENGTH__+0x7e00f5>
		CANIDM2 = (uint8_t)  filter->mask << 5;
 7a0:	14 96       	adiw	r26, 0x04	; 4
 7a2:	9c 91       	ld	r25, X
 7a4:	14 97       	sbiw	r26, 0x04	; 4
 7a6:	92 95       	swap	r25
 7a8:	99 0f       	add	r25, r25
 7aa:	90 7e       	andi	r25, 0xE0	; 224
 7ac:	90 93 f6 00 	sts	0x00F6, r25	; 0x8000f6 <__TEXT_REGION_LENGTH__+0x7e00f6>
		CANIDM1 = (uint16_t) filter->mask >> 3;
 7b0:	14 96       	adiw	r26, 0x04	; 4
 7b2:	2d 91       	ld	r18, X+
 7b4:	3c 91       	ld	r19, X
 7b6:	15 97       	sbiw	r26, 0x05	; 5
 7b8:	36 95       	lsr	r19
 7ba:	27 95       	ror	r18
 7bc:	36 95       	lsr	r19
 7be:	27 95       	ror	r18
 7c0:	36 95       	lsr	r19
 7c2:	27 95       	ror	r18
 7c4:	20 93 f7 00 	sts	0x00F7, r18	; 0x8000f7 <__TEXT_REGION_LENGTH__+0x7e00f7>
	CANIDM2 = (uint8_t)  filter->mask << 5;
	CANIDM1 = (uint16_t) filter->mask >> 3;
	
	#endif
	
	if (filter->flags.rtr & 0x2) {
 7c8:	18 96       	adiw	r26, 0x08	; 8
 7ca:	9c 91       	ld	r25, X
 7cc:	18 97       	sbiw	r26, 0x08	; 8
 7ce:	91 ff       	sbrs	r25, 1
 7d0:	0e c0       	rjmp	.+28     	; 0x7ee <can_set_filter+0x1c4>
		CANIDM4 |= (1 << RTRMSK);
 7d2:	e4 ef       	ldi	r30, 0xF4	; 244
 7d4:	f0 e0       	ldi	r31, 0x00	; 0
 7d6:	90 81       	ld	r25, Z
 7d8:	94 60       	ori	r25, 0x04	; 4
 7da:	90 83       	st	Z, r25
		
		if (filter->flags.rtr & 0x1)
 7dc:	18 96       	adiw	r26, 0x08	; 8
 7de:	9c 91       	ld	r25, X
 7e0:	90 ff       	sbrs	r25, 0
 7e2:	05 c0       	rjmp	.+10     	; 0x7ee <can_set_filter+0x1c4>
			CANIDT4 |= (1 << RTRMSK);		// only RTR-frames
 7e4:	e0 ef       	ldi	r30, 0xF0	; 240
 7e6:	f0 e0       	ldi	r31, 0x00	; 0
 7e8:	90 81       	ld	r25, Z
 7ea:	94 60       	ori	r25, 0x04	; 4
 7ec:	90 83       	st	Z, r25
	}
	
	CANCDMOB |= (1<<CONMOB1);
 7ee:	ef ee       	ldi	r30, 0xEF	; 239
 7f0:	f0 e0       	ldi	r31, 0x00	; 0
 7f2:	90 81       	ld	r25, Z
 7f4:	90 68       	ori	r25, 0x80	; 128
 7f6:	90 83       	st	Z, r25
	
	_enable_mob_interrupt(number);
 7f8:	0e 94 a1 00 	call	0x142	; 0x142 <_enable_mob_interrupt>
// leave standby mode => CAN Controller is connected to CAN Bus

extern __attribute__ ((gnu_inline)) inline void _leave_standby_mode(void)
{
	// save CANPAGE register
	uint8_t canpage = CANPAGE;
 7fc:	20 91 ed 00 	lds	r18, 0x00ED	; 0x8000ed <__TEXT_REGION_LENGTH__+0x7e00ed>
	
	// reenable all MObs
	for (uint8_t i=0;i<MESSAGE_OBJECTS;i++) {
 800:	80 e0       	ldi	r24, 0x00	; 0
		CANPAGE = i << 4;
 802:	ad ee       	ldi	r26, 0xED	; 237
 804:	b0 e0       	ldi	r27, 0x00	; 0
		CANCDMOB = CANCDMOB;
 806:	ef ee       	ldi	r30, 0xEF	; 239
 808:	f0 e0       	ldi	r31, 0x00	; 0
	// save CANPAGE register
	uint8_t canpage = CANPAGE;
	
	// reenable all MObs
	for (uint8_t i=0;i<MESSAGE_OBJECTS;i++) {
		CANPAGE = i << 4;
 80a:	98 2f       	mov	r25, r24
 80c:	92 95       	swap	r25
 80e:	90 7f       	andi	r25, 0xF0	; 240
 810:	9c 93       	st	X, r25
		CANCDMOB = CANCDMOB;
 812:	90 81       	ld	r25, Z
 814:	90 83       	st	Z, r25
{
	// save CANPAGE register
	uint8_t canpage = CANPAGE;
	
	// reenable all MObs
	for (uint8_t i=0;i<MESSAGE_OBJECTS;i++) {
 816:	8f 5f       	subi	r24, 0xFF	; 255
 818:	86 30       	cpi	r24, 0x06	; 6
 81a:	b9 f7       	brne	.-18     	; 0x80a <can_set_filter+0x1e0>
		CANPAGE = i << 4;
		CANCDMOB = CANCDMOB;
	}
	
	// restore CANPAGE
	CANPAGE = canpage;
 81c:	20 93 ed 00 	sts	0x00ED, r18	; 0x8000ed <__TEXT_REGION_LENGTH__+0x7e00ed>
	
	// request normal mode
	CANGCON = (1 << ENASTB);
 820:	82 e0       	ldi	r24, 0x02	; 2
 822:	80 93 d8 00 	sts	0x00D8, r24	; 0x8000d8 <__TEXT_REGION_LENGTH__+0x7e00d8>
	
	// wait until the CAN Controller has left standby mode
	while ((CANGSTA & (1 << ENFG)) == 0)
 826:	e9 ed       	ldi	r30, 0xD9	; 217
 828:	f0 e0       	ldi	r31, 0x00	; 0
 82a:	80 81       	ld	r24, Z
 82c:	82 ff       	sbrs	r24, 2
 82e:	fd cf       	rjmp	.-6      	; 0x82a <can_set_filter+0x200>
	
	// re-enable CAN Controller 
	_leave_standby_mode();
	
	return true;
 830:	81 e0       	ldi	r24, 0x01	; 1
 832:	08 95       	ret
// ----------------------------------------------------------------------------
bool at90can_set_filter(uint8_t number, const can_filter_t *filter)
{
	if (number > (MESSAGE_OBJECTS - 1)) {
		// it is only possible to serve a maximum of MESSAGE_OBJECTS filters
		return false;
 834:	80 e0       	ldi	r24, 0x00	; 0
	
	// re-enable CAN Controller 
	_leave_standby_mode();
	
	return true;
}
 836:	08 95       	ret

00000838 <can_buffer_init>:
	
	if (used == 0)
		return true;
	else
		return false;
}
 838:	fc 01       	movw	r30, r24
 83a:	8f b7       	in	r24, 0x3f	; 63
 83c:	f8 94       	cli
 83e:	62 83       	std	Z+2, r22	; 0x02
 840:	51 83       	std	Z+1, r21	; 0x01
 842:	40 83       	st	Z, r20
 844:	14 82       	std	Z+4, r1	; 0x04
 846:	15 82       	std	Z+5, r1	; 0x05
 848:	13 82       	std	Z+3, r1	; 0x03
 84a:	8f bf       	out	0x3f, r24	; 63
 84c:	08 95       	ret

0000084e <can_buffer_full>:
bool can_buffer_full(can_buffer_t *buf)
{
	uint8_t used;
	uint8_t size;
	
	ENTER_CRITICAL_SECTION;
 84e:	3f b7       	in	r19, 0x3f	; 63
    return 1;
}

static __inline__ uint8_t __iCliRetVal(void)
{
    cli();
 850:	f8 94       	cli
	used = buf->used;
 852:	fc 01       	movw	r30, r24
 854:	23 81       	ldd	r18, Z+3	; 0x03
	size = buf->size;
 856:	92 81       	ldd	r25, Z+2	; 0x02
    (void)__s;
}

static __inline__ void __iRestore(const  uint8_t *__s)
{
    SREG = *__s;
 858:	3f bf       	out	0x3f, r19	; 63
	LEAVE_CRITICAL_SECTION;
	
	if (used >= size)
 85a:	81 e0       	ldi	r24, 0x01	; 1
 85c:	29 17       	cp	r18, r25
 85e:	08 f4       	brcc	.+2      	; 0x862 <can_buffer_full+0x14>
 860:	80 e0       	ldi	r24, 0x00	; 0
		return true;
	else
		return false;
}
 862:	08 95       	ret

00000864 <can_buffer_get_enqueue_ptr>:

// -----------------------------------------------------------------------------
can_t *can_buffer_get_enqueue_ptr(can_buffer_t *buf)
{
 864:	cf 93       	push	r28
 866:	df 93       	push	r29
 868:	ec 01       	movw	r28, r24
	if (can_buffer_full( buf ))
 86a:	0e 94 27 04 	call	0x84e	; 0x84e <can_buffer_full>
 86e:	81 11       	cpse	r24, r1
 870:	09 c0       	rjmp	.+18     	; 0x884 <can_buffer_get_enqueue_ptr+0x20>
		return NULL;
	
	return &buf->buf[buf->head];
 872:	2c 81       	ldd	r18, Y+4	; 0x04
 874:	88 81       	ld	r24, Y
 876:	99 81       	ldd	r25, Y+1	; 0x01
 878:	30 e1       	ldi	r19, 0x10	; 16
 87a:	23 9f       	mul	r18, r19
 87c:	80 0d       	add	r24, r0
 87e:	91 1d       	adc	r25, r1
 880:	11 24       	eor	r1, r1
 882:	02 c0       	rjmp	.+4      	; 0x888 <can_buffer_get_enqueue_ptr+0x24>

// -----------------------------------------------------------------------------
can_t *can_buffer_get_enqueue_ptr(can_buffer_t *buf)
{
	if (can_buffer_full( buf ))
		return NULL;
 884:	80 e0       	ldi	r24, 0x00	; 0
 886:	90 e0       	ldi	r25, 0x00	; 0
	
	return &buf->buf[buf->head];
}
 888:	df 91       	pop	r29
 88a:	cf 91       	pop	r28
 88c:	08 95       	ret

0000088e <can_buffer_enqueue>:

// -----------------------------------------------------------------------------
void can_buffer_enqueue(can_buffer_t *buf)
{
 88e:	fc 01       	movw	r30, r24
	ENTER_CRITICAL_SECTION;
 890:	9f b7       	in	r25, 0x3f	; 63
    return 1;
}

static __inline__ uint8_t __iCliRetVal(void)
{
    cli();
 892:	f8 94       	cli
	buf->used ++;
 894:	83 81       	ldd	r24, Z+3	; 0x03
 896:	8f 5f       	subi	r24, 0xFF	; 255
 898:	83 83       	std	Z+3, r24	; 0x03
	if (++buf->head >= buf->size)
 89a:	84 81       	ldd	r24, Z+4	; 0x04
 89c:	8f 5f       	subi	r24, 0xFF	; 255
 89e:	84 83       	std	Z+4, r24	; 0x04
 8a0:	22 81       	ldd	r18, Z+2	; 0x02
 8a2:	82 17       	cp	r24, r18
 8a4:	08 f0       	brcs	.+2      	; 0x8a8 <can_buffer_enqueue+0x1a>
		buf->head = 0;
 8a6:	14 82       	std	Z+4, r1	; 0x04
    (void)__s;
}

static __inline__ void __iRestore(const  uint8_t *__s)
{
    SREG = *__s;
 8a8:	9f bf       	out	0x3f, r25	; 63
    __asm__ volatile ("" ::: "memory");
 8aa:	08 95       	ret

000008ac <i2c_init>:
    i2c_start();
    i2c_write(slaveid<<1);
    i2c_write(registerAdress);
    i2c_write(data);
    i2c_stop();
}
 8ac:	8b b1       	in	r24, 0x0b	; 11
 8ae:	81 70       	andi	r24, 0x01	; 1
 8b0:	8b b9       	out	0x0b, r24	; 11
 8b2:	8b b1       	in	r24, 0x0b	; 11
 8b4:	82 70       	andi	r24, 0x02	; 2
 8b6:	8b b9       	out	0x0b, r24	; 11
 8b8:	50 98       	cbi	0x0a, 0	; 10
 8ba:	51 98       	cbi	0x0a, 1	; 10
 8bc:	08 95       	ret

000008be <i2c_start>:
 8be:	51 98       	cbi	0x0a, 1	; 10
 8c0:	85 e0       	ldi	r24, 0x05	; 5
 8c2:	90 e0       	ldi	r25, 0x00	; 0
 8c4:	fc 01       	movw	r30, r24
 8c6:	31 97       	sbiw	r30, 0x01	; 1
 8c8:	f1 f7       	brne	.-4      	; 0x8c6 <i2c_start+0x8>
 8ca:	50 9a       	sbi	0x0a, 0	; 10
 8cc:	01 97       	sbiw	r24, 0x01	; 1
 8ce:	f1 f7       	brne	.-4      	; 0x8cc <i2c_start+0xe>
 8d0:	08 95       	ret

000008d2 <i2c_stop>:
 8d2:	50 9a       	sbi	0x0a, 0	; 10
 8d4:	85 e0       	ldi	r24, 0x05	; 5
 8d6:	90 e0       	ldi	r25, 0x00	; 0
 8d8:	fc 01       	movw	r30, r24
 8da:	31 97       	sbiw	r30, 0x01	; 1
 8dc:	f1 f7       	brne	.-4      	; 0x8da <i2c_stop+0x8>
 8de:	51 98       	cbi	0x0a, 1	; 10
 8e0:	e3 e0       	ldi	r30, 0x03	; 3
 8e2:	f0 e0       	ldi	r31, 0x00	; 0
 8e4:	31 97       	sbiw	r30, 0x01	; 1
 8e6:	f1 f7       	brne	.-4      	; 0x8e4 <i2c_stop+0x12>
 8e8:	50 98       	cbi	0x0a, 0	; 10
 8ea:	01 97       	sbiw	r24, 0x01	; 1
 8ec:	f1 f7       	brne	.-4      	; 0x8ea <i2c_stop+0x18>
 8ee:	08 95       	ret

000008f0 <i2c_write>:
 8f0:	98 e0       	ldi	r25, 0x08	; 8
 8f2:	43 e0       	ldi	r20, 0x03	; 3
 8f4:	50 e0       	ldi	r21, 0x00	; 0
 8f6:	25 e0       	ldi	r18, 0x05	; 5
 8f8:	30 e0       	ldi	r19, 0x00	; 0
 8fa:	51 9a       	sbi	0x0a, 1	; 10
 8fc:	fa 01       	movw	r30, r20
 8fe:	31 97       	sbiw	r30, 0x01	; 1
 900:	f1 f7       	brne	.-4      	; 0x8fe <i2c_write+0xe>
 902:	88 23       	and	r24, r24
 904:	14 f4       	brge	.+4      	; 0x90a <i2c_write+0x1a>
 906:	50 98       	cbi	0x0a, 0	; 10
 908:	01 c0       	rjmp	.+2      	; 0x90c <i2c_write+0x1c>
 90a:	50 9a       	sbi	0x0a, 0	; 10
 90c:	f9 01       	movw	r30, r18
 90e:	31 97       	sbiw	r30, 0x01	; 1
 910:	f1 f7       	brne	.-4      	; 0x90e <i2c_write+0x1e>
 912:	51 98       	cbi	0x0a, 1	; 10
 914:	f9 01       	movw	r30, r18
 916:	31 97       	sbiw	r30, 0x01	; 1
 918:	f1 f7       	brne	.-4      	; 0x916 <i2c_write+0x26>
 91a:	49 9b       	sbis	0x09, 1	; 9
 91c:	fe cf       	rjmp	.-4      	; 0x91a <i2c_write+0x2a>
 91e:	88 0f       	add	r24, r24
 920:	91 50       	subi	r25, 0x01	; 1
 922:	59 f7       	brne	.-42     	; 0x8fa <i2c_write+0xa>
 924:	51 9a       	sbi	0x0a, 1	; 10
 926:	83 e0       	ldi	r24, 0x03	; 3
 928:	90 e0       	ldi	r25, 0x00	; 0
 92a:	01 97       	sbiw	r24, 0x01	; 1
 92c:	f1 f7       	brne	.-4      	; 0x92a <i2c_write+0x3a>
 92e:	50 98       	cbi	0x0a, 0	; 10
 930:	25 e0       	ldi	r18, 0x05	; 5
 932:	30 e0       	ldi	r19, 0x00	; 0
 934:	c9 01       	movw	r24, r18
 936:	01 97       	sbiw	r24, 0x01	; 1
 938:	f1 f7       	brne	.-4      	; 0x936 <i2c_write+0x46>
 93a:	51 98       	cbi	0x0a, 1	; 10
 93c:	c9 01       	movw	r24, r18
 93e:	01 97       	sbiw	r24, 0x01	; 1
 940:	f1 f7       	brne	.-4      	; 0x93e <i2c_write+0x4e>
 942:	89 b1       	in	r24, 0x09	; 9
 944:	51 9a       	sbi	0x0a, 1	; 10
 946:	f9 01       	movw	r30, r18
 948:	31 97       	sbiw	r30, 0x01	; 1
 94a:	f1 f7       	brne	.-4      	; 0x948 <i2c_write+0x58>
 94c:	80 95       	com	r24
 94e:	81 70       	andi	r24, 0x01	; 1
 950:	08 95       	ret

00000952 <i2c_read>:
 952:	98 2f       	mov	r25, r24
 954:	20 e0       	ldi	r18, 0x00	; 0
 956:	30 e0       	ldi	r19, 0x00	; 0
 958:	80 e0       	ldi	r24, 0x00	; 0
 95a:	45 e0       	ldi	r20, 0x05	; 5
 95c:	50 e0       	ldi	r21, 0x00	; 0
 95e:	a0 e8       	ldi	r26, 0x80	; 128
 960:	b0 e0       	ldi	r27, 0x00	; 0
 962:	51 9a       	sbi	0x0a, 1	; 10
 964:	fa 01       	movw	r30, r20
 966:	31 97       	sbiw	r30, 0x01	; 1
 968:	f1 f7       	brne	.-4      	; 0x966 <i2c_read+0x14>
 96a:	51 98       	cbi	0x0a, 1	; 10
 96c:	fa 01       	movw	r30, r20
 96e:	31 97       	sbiw	r30, 0x01	; 1
 970:	f1 f7       	brne	.-4      	; 0x96e <i2c_read+0x1c>
 972:	49 9b       	sbis	0x09, 1	; 9
 974:	fe cf       	rjmp	.-4      	; 0x972 <i2c_read+0x20>
 976:	48 9b       	sbis	0x09, 0	; 9
 978:	08 c0       	rjmp	.+16     	; 0x98a <i2c_read+0x38>
 97a:	bd 01       	movw	r22, r26
 97c:	02 2e       	mov	r0, r18
 97e:	02 c0       	rjmp	.+4      	; 0x984 <i2c_read+0x32>
 980:	75 95       	asr	r23
 982:	67 95       	ror	r22
 984:	0a 94       	dec	r0
 986:	e2 f7       	brpl	.-8      	; 0x980 <i2c_read+0x2e>
 988:	86 2b       	or	r24, r22
 98a:	2f 5f       	subi	r18, 0xFF	; 255
 98c:	3f 4f       	sbci	r19, 0xFF	; 255
 98e:	28 30       	cpi	r18, 0x08	; 8
 990:	31 05       	cpc	r19, r1
 992:	39 f7       	brne	.-50     	; 0x962 <i2c_read+0x10>
 994:	51 9a       	sbi	0x0a, 1	; 10
 996:	e3 e0       	ldi	r30, 0x03	; 3
 998:	f0 e0       	ldi	r31, 0x00	; 0
 99a:	31 97       	sbiw	r30, 0x01	; 1
 99c:	f1 f7       	brne	.-4      	; 0x99a <i2c_read+0x48>
 99e:	99 23       	and	r25, r25
 9a0:	11 f0       	breq	.+4      	; 0x9a6 <i2c_read+0x54>
 9a2:	50 9a       	sbi	0x0a, 0	; 10
 9a4:	01 c0       	rjmp	.+2      	; 0x9a8 <i2c_read+0x56>
 9a6:	50 98       	cbi	0x0a, 0	; 10
 9a8:	25 e0       	ldi	r18, 0x05	; 5
 9aa:	30 e0       	ldi	r19, 0x00	; 0
 9ac:	f9 01       	movw	r30, r18
 9ae:	31 97       	sbiw	r30, 0x01	; 1
 9b0:	f1 f7       	brne	.-4      	; 0x9ae <i2c_read+0x5c>
 9b2:	51 98       	cbi	0x0a, 1	; 10
 9b4:	f9 01       	movw	r30, r18
 9b6:	31 97       	sbiw	r30, 0x01	; 1
 9b8:	f1 f7       	brne	.-4      	; 0x9b6 <i2c_read+0x64>
 9ba:	51 9a       	sbi	0x0a, 1	; 10
 9bc:	f9 01       	movw	r30, r18
 9be:	31 97       	sbiw	r30, 0x01	; 1
 9c0:	f1 f7       	brne	.-4      	; 0x9be <i2c_read+0x6c>
 9c2:	50 98       	cbi	0x0a, 0	; 10
 9c4:	08 95       	ret

000009c6 <i2c_readRegister>:

uint8_t i2c_readRegister(uint8_t slaveid, uint8_t registerAdress)
{
 9c6:	cf 93       	push	r28
 9c8:	df 93       	push	r29
 9ca:	c8 2f       	mov	r28, r24
 9cc:	d6 2f       	mov	r29, r22
    uint8_t data=0;
    i2c_start();
 9ce:	0e 94 5f 04 	call	0x8be	; 0x8be <i2c_start>
    i2c_write(slaveid<<1);
 9d2:	cc 0f       	add	r28, r28
 9d4:	8c 2f       	mov	r24, r28
 9d6:	0e 94 78 04 	call	0x8f0	; 0x8f0 <i2c_write>
    i2c_write(registerAdress);
 9da:	8d 2f       	mov	r24, r29
 9dc:	0e 94 78 04 	call	0x8f0	; 0x8f0 <i2c_write>
    i2c_start(); //repeated start
 9e0:	0e 94 5f 04 	call	0x8be	; 0x8be <i2c_start>
    i2c_write((slaveid<<1)+1); //1 for read mode
 9e4:	81 e0       	ldi	r24, 0x01	; 1
 9e6:	8c 0f       	add	r24, r28
 9e8:	0e 94 78 04 	call	0x8f0	; 0x8f0 <i2c_write>
    data=i2c_read(NAK);
 9ec:	80 e0       	ldi	r24, 0x00	; 0
 9ee:	0e 94 a9 04 	call	0x952	; 0x952 <i2c_read>
 9f2:	c8 2f       	mov	r28, r24
    i2c_stop();
 9f4:	0e 94 69 04 	call	0x8d2	; 0x8d2 <i2c_stop>
    return data;
}
 9f8:	8c 2f       	mov	r24, r28
 9fa:	df 91       	pop	r29
 9fc:	cf 91       	pop	r28
 9fe:	08 95       	ret

00000a00 <my_can_init>:
	}
	return 0;
}

int my_can_init(void)
{
 a00:	0f 93       	push	r16
 a02:	1f 93       	push	r17
 a04:	cf 93       	push	r28
 a06:	df 93       	push	r29
 a08:	cd b7       	in	r28, 0x3d	; 61
 a0a:	de b7       	in	r29, 0x3e	; 62
 a0c:	29 97       	sbiw	r28, 0x09	; 9
 a0e:	0f b6       	in	r0, 0x3f	; 63
 a10:	f8 94       	cli
 a12:	de bf       	out	0x3e, r29	; 62
 a14:	0f be       	out	0x3f, r0	; 63
 a16:	cd bf       	out	0x3d, r28	; 61
	can_init( BITRATE_500_KBPS );
 a18:	86 e0       	ldi	r24, 0x06	; 6
 a1a:	0e 94 c2 00 	call	0x184	; 0x184 <can_init>

	can_filter_t can_filter = {     .id = 0, .mask = 0, .flags = { .rtr = 0, .extended = 0 } };
 a1e:	8e 01       	movw	r16, r28
 a20:	0f 5f       	subi	r16, 0xFF	; 255
 a22:	1f 4f       	sbci	r17, 0xFF	; 255
 a24:	89 e0       	ldi	r24, 0x09	; 9
 a26:	f8 01       	movw	r30, r16
 a28:	11 92       	st	Z+, r1
 a2a:	8a 95       	dec	r24
 a2c:	e9 f7       	brne	.-6      	; 0xa28 <my_can_init+0x28>
	can_set_filter( 0, &can_filter );
 a2e:	b8 01       	movw	r22, r16
 a30:	80 e0       	ldi	r24, 0x00	; 0
 a32:	0e 94 15 03 	call	0x62a	; 0x62a <can_set_filter>
	can_set_filter( 1, &can_filter );
 a36:	b8 01       	movw	r22, r16
 a38:	81 e0       	ldi	r24, 0x01	; 1
 a3a:	0e 94 15 03 	call	0x62a	; 0x62a <can_set_filter>
	can_set_filter( 2, &can_filter );
 a3e:	b8 01       	movw	r22, r16
 a40:	82 e0       	ldi	r24, 0x02	; 2
 a42:	0e 94 15 03 	call	0x62a	; 0x62a <can_set_filter>

	DDRB |= (1<<PB3) | (1<<PB4); // !STB! | EN
 a46:	84 b1       	in	r24, 0x04	; 4
 a48:	88 61       	ori	r24, 0x18	; 24
 a4a:	84 b9       	out	0x04, r24	; 4
	PORTB |= (1<<PB3) | (1<<PB4); // ready for sending data
 a4c:	85 b1       	in	r24, 0x05	; 5
 a4e:	88 61       	ori	r24, 0x18	; 24
 a50:	85 b9       	out	0x05, r24	; 5

	return 0;
}
 a52:	80 e0       	ldi	r24, 0x00	; 0
 a54:	90 e0       	ldi	r25, 0x00	; 0
 a56:	29 96       	adiw	r28, 0x09	; 9
 a58:	0f b6       	in	r0, 0x3f	; 63
 a5a:	f8 94       	cli
 a5c:	de bf       	out	0x3e, r29	; 62
 a5e:	0f be       	out	0x3f, r0	; 63
 a60:	cd bf       	out	0x3d, r28	; 61
 a62:	df 91       	pop	r29
 a64:	cf 91       	pop	r28
 a66:	1f 91       	pop	r17
 a68:	0f 91       	pop	r16
 a6a:	08 95       	ret

00000a6c <main>:
#define CAN_MSG_MAX_LENGTH 8

int my_can_init(void);

int main( void )
{
 a6c:	cf 93       	push	r28
 a6e:	df 93       	push	r29
 a70:	cd b7       	in	r28, 0x3d	; 61
 a72:	de b7       	in	r29, 0x3e	; 62
 a74:	c0 59       	subi	r28, 0x90	; 144
 a76:	d1 09       	sbc	r29, r1
 a78:	0f b6       	in	r0, 0x3f	; 63
 a7a:	f8 94       	cli
 a7c:	de bf       	out	0x3e, r29	; 62
 a7e:	0f be       	out	0x3f, r0	; 63
 a80:	cd bf       	out	0x3d, r28	; 61
	//can
	can_t msg_tx;
	uint16_t canStartID = 0x100;
	msg_tx.flags.extended = 0;
 a82:	8d 81       	ldd	r24, Y+5	; 0x05
	msg_tx.flags.rtr = 0;
 a84:	8d 7f       	andi	r24, 0xFD	; 253
 a86:	8e 7f       	andi	r24, 0xFE	; 254
 a88:	8d 83       	std	Y+5, r24	; 0x05
	msg_tx.length = CAN_MSG_MAX_LENGTH;
 a8a:	88 e0       	ldi	r24, 0x08	; 8
 a8c:	8e 83       	std	Y+6, r24	; 0x06
	//sensor
	uint8_t data[64][2];
	//uint16_t *value=&data;

	//init
	timer_init( );
 a8e:	0e 94 e7 05 	call	0xbce	; 0xbce <timer_init>
	my_can_init( );
 a92:	0e 94 00 05 	call	0xa00	; 0xa00 <my_can_init>
	i2c_init();
 a96:	0e 94 56 04 	call	0x8ac	; 0x8ac <i2c_init>
	sei( );
 a9a:	78 94       	sei
				: "r0"
		);
	}
	else
	{
		__asm__ __volatile__ (
 a9c:	9d e0       	ldi	r25, 0x0D	; 13
 a9e:	88 e1       	ldi	r24, 0x18	; 24
 aa0:	0f b6       	in	r0, 0x3f	; 63
 aa2:	f8 94       	cli
 aa4:	a8 95       	wdr
 aa6:	80 93 60 00 	sts	0x0060, r24	; 0x800060 <__TEXT_REGION_LENGTH__+0x7e0060>
 aaa:	0f be       	out	0x3f, r0	; 63
 aac:	90 93 60 00 	sts	0x0060, r25	; 0x800060 <__TEXT_REGION_LENGTH__+0x7e0060>
	wdt_enable(WDTO_500MS);
	wdt_reset();
 ab0:	a8 95       	wdr
	uint16_t canStartID = 0x100;
	msg_tx.flags.extended = 0;
	msg_tx.flags.rtr = 0;
	msg_tx.length = CAN_MSG_MAX_LENGTH;
	//timer
	uint32_t now, t_read_pixels=0;
 ab2:	81 2c       	mov	r8, r1
 ab4:	91 2c       	mov	r9, r1
 ab6:	54 01       	movw	r10, r8
	{
		wdt_reset();
		now = timer_getMs( );

		//every 100ms
		if( t_read_pixels + 100 < now)
 ab8:	31 2c       	mov	r3, r1
				data[pixelCounter][0]=i2c_readRegister(sensor, 0x80+(pixelCounter<<1)); //low
				data[pixelCounter][1]=i2c_readRegister(sensor, 0x81+(pixelCounter<<1)); //high
			}

			DDRC  |= (1<<PC6); //debug blink
			PORTC ^= (1<<PC6);
 aba:	22 24       	eor	r2, r2
 abc:	23 94       	inc	r2
 abe:	c1 2c       	mov	r12, r1
 ac0:	7e 01       	movw	r14, r28
 ac2:	8f e0       	ldi	r24, 0x0F	; 15
 ac4:	e8 0e       	add	r14, r24
 ac6:	f1 1c       	adc	r15, r1
				}
                //and send them over can
				can_send_message( &msg_tx );

				DDRC  |= (1<<PC5);//debug blink
				PORTC ^= (1<<PC5);
 ac8:	68 94       	set
 aca:	dd 24       	eor	r13, r13
 acc:	d5 f8       	bld	r13, 5
	{
		wdt_reset();
		now = timer_getMs( );

		//every 100ms
		if( t_read_pixels + 100 < now)
 ace:	24 01       	movw	r4, r8
 ad0:	35 01       	movw	r6, r10
 ad2:	94 e6       	ldi	r25, 0x64	; 100
 ad4:	49 0e       	add	r4, r25
 ad6:	51 1c       	adc	r5, r1
 ad8:	61 1c       	adc	r6, r1
 ada:	71 1c       	adc	r7, r1
	wdt_enable(WDTO_500MS);
	wdt_reset();

	while( 1 )
	{
		wdt_reset();
 adc:	a8 95       	wdr
		now = timer_getMs( );
 ade:	0e 94 fe 05 	call	0xbfc	; 0xbfc <timer_getMs>
 ae2:	4b 01       	movw	r8, r22
 ae4:	5c 01       	movw	r10, r24

		//every 100ms
		if( t_read_pixels + 100 < now)
 ae6:	46 16       	cp	r4, r22
 ae8:	57 06       	cpc	r5, r23
 aea:	68 06       	cpc	r6, r24
 aec:	79 06       	cpc	r7, r25
 aee:	b0 f7       	brcc	.-20     	; 0xadc <main+0x70>
 af0:	8e 01       	movw	r16, r28
 af2:	0e 5e       	subi	r16, 0xEE	; 238
 af4:	1f 4f       	sbci	r17, 0xFF	; 255
 af6:	43 2c       	mov	r4, r3
		{
			t_read_pixels = now;
			//read data from the I2C Sensor
			for(uint8_t pixelCounter=0; pixelCounter<=63; pixelCounter++)
			{
				data[pixelCounter][0]=i2c_readRegister(sensor, 0x80+(pixelCounter<<1)); //low
 af8:	54 2c       	mov	r5, r4
 afa:	55 0c       	add	r5, r5
 afc:	60 e8       	ldi	r22, 0x80	; 128
 afe:	65 0d       	add	r22, r5
 b00:	89 e6       	ldi	r24, 0x69	; 105
 b02:	0e 94 e3 04 	call	0x9c6	; 0x9c6 <i2c_readRegister>
 b06:	f8 01       	movw	r30, r16
 b08:	31 97       	sbiw	r30, 0x01	; 1
 b0a:	80 83       	st	Z, r24
				data[pixelCounter][1]=i2c_readRegister(sensor, 0x81+(pixelCounter<<1)); //high
 b0c:	61 e8       	ldi	r22, 0x81	; 129
 b0e:	65 0d       	add	r22, r5
 b10:	89 e6       	ldi	r24, 0x69	; 105
 b12:	0e 94 e3 04 	call	0x9c6	; 0x9c6 <i2c_readRegister>
 b16:	f8 01       	movw	r30, r16
 b18:	80 83       	st	Z, r24
		//every 100ms
		if( t_read_pixels + 100 < now)
		{
			t_read_pixels = now;
			//read data from the I2C Sensor
			for(uint8_t pixelCounter=0; pixelCounter<=63; pixelCounter++)
 b1a:	43 94       	inc	r4
 b1c:	0e 5f       	subi	r16, 0xFE	; 254
 b1e:	1f 4f       	sbci	r17, 0xFF	; 255
 b20:	f0 e4       	ldi	r31, 0x40	; 64
 b22:	4f 12       	cpse	r4, r31
 b24:	e9 cf       	rjmp	.-46     	; 0xaf8 <main+0x8c>
			{
				data[pixelCounter][0]=i2c_readRegister(sensor, 0x80+(pixelCounter<<1)); //low
				data[pixelCounter][1]=i2c_readRegister(sensor, 0x81+(pixelCounter<<1)); //high
			}

			DDRC  |= (1<<PC6); //debug blink
 b26:	3e 9a       	sbi	0x07, 6	; 7
			PORTC ^= (1<<PC6);
 b28:	88 b1       	in	r24, 0x08	; 8
 b2a:	8f 27       	eor	r24, r31
 b2c:	88 b9       	out	0x08, r24	; 8
 b2e:	8e 01       	movw	r16, r28
 b30:	0f 5e       	subi	r16, 0xEF	; 239
 b32:	1f 4f       	sbci	r17, 0xFF	; 255
 b34:	41 2c       	mov	r4, r1
 b36:	52 2c       	mov	r5, r2
 b38:	61 2c       	mov	r6, r1
 b3a:	7c 2c       	mov	r7, r12

			for(uint8_t canMessageCounter=0; canMessageCounter<7; canMessageCounter++)
			{
				//generate the packet id
				msg_tx.id = canStartID+canMessageCounter;
 b3c:	49 82       	std	Y+1, r4	; 0x01
 b3e:	5a 82       	std	Y+2, r5	; 0x02
 b40:	6b 82       	std	Y+3, r6	; 0x03
 b42:	7c 82       	std	Y+4, r7	; 0x04
 b44:	de 01       	movw	r26, r28
 b46:	17 96       	adiw	r26, 0x07	; 7
 b48:	f8 01       	movw	r30, r16

				//fill the packet with data
				for(uint8_t canDataCounter=0; canDataCounter<CAN_MSG_MAX_LENGTH; canDataCounter++)
				{
					//msg_tx.data[canDataCounter] = ((uint8_t)((value[canMessageCounter*8+canDataCounter])<<0)); //convert the signed 12bit to unsigned 8bit, just watching at the lower 8 bit (<<0). This is a range of 64C.
					msg_tx.data[canDataCounter] = data[canMessageCounter*8+canDataCounter][0];
 b4a:	80 81       	ld	r24, Z
 b4c:	8d 93       	st	X+, r24
 b4e:	32 96       	adiw	r30, 0x02	; 2
			{
				//generate the packet id
				msg_tx.id = canStartID+canMessageCounter;

				//fill the packet with data
				for(uint8_t canDataCounter=0; canDataCounter<CAN_MSG_MAX_LENGTH; canDataCounter++)
 b50:	ae 15       	cp	r26, r14
 b52:	bf 05       	cpc	r27, r15
 b54:	d1 f7       	brne	.-12     	; 0xb4a <main+0xde>
				{
					//msg_tx.data[canDataCounter] = ((uint8_t)((value[canMessageCounter*8+canDataCounter])<<0)); //convert the signed 12bit to unsigned 8bit, just watching at the lower 8 bit (<<0). This is a range of 64C.
					msg_tx.data[canDataCounter] = data[canMessageCounter*8+canDataCounter][0];
				}
                //and send them over can
				can_send_message( &msg_tx );
 b56:	ce 01       	movw	r24, r28
 b58:	01 96       	adiw	r24, 0x01	; 1
 b5a:	0e 94 e9 02 	call	0x5d2	; 0x5d2 <can_send_message>

				DDRC  |= (1<<PC5);//debug blink
 b5e:	3d 9a       	sbi	0x07, 5	; 7
				PORTC ^= (1<<PC5);
 b60:	88 b1       	in	r24, 0x08	; 8
 b62:	8d 25       	eor	r24, r13
 b64:	88 b9       	out	0x08, r24	; 8
 b66:	8f ef       	ldi	r24, 0xFF	; 255
 b68:	48 1a       	sub	r4, r24
 b6a:	58 0a       	sbc	r5, r24
 b6c:	68 0a       	sbc	r6, r24
 b6e:	78 0a       	sbc	r7, r24
 b70:	00 5f       	subi	r16, 0xF0	; 240
 b72:	1f 4f       	sbci	r17, 0xFF	; 255
			}

			DDRC  |= (1<<PC6); //debug blink
			PORTC ^= (1<<PC6);

			for(uint8_t canMessageCounter=0; canMessageCounter<7; canMessageCounter++)
 b74:	97 e0       	ldi	r25, 0x07	; 7
 b76:	49 16       	cp	r4, r25
 b78:	91 e0       	ldi	r25, 0x01	; 1
 b7a:	59 06       	cpc	r5, r25
 b7c:	61 04       	cpc	r6, r1
 b7e:	71 04       	cpc	r7, r1
 b80:	e9 f6       	brne	.-70     	; 0xb3c <main+0xd0>
 b82:	a5 cf       	rjmp	.-182    	; 0xace <main+0x62>

00000b84 <__vector_15>:
/* TimerTime gets increased on every SIG_OUTPUT_COMPARE2 interrupt
	* those interrupts happen every 1ms
	*/
static volatile uint32_t timer_time;

ISR( TIMER0_COMPA_vect ) {
 b84:	1f 92       	push	r1
 b86:	0f 92       	push	r0
 b88:	0f b6       	in	r0, 0x3f	; 63
 b8a:	0f 92       	push	r0
 b8c:	11 24       	eor	r1, r1
 b8e:	8f 93       	push	r24
 b90:	9f 93       	push	r25
 b92:	af 93       	push	r26
 b94:	bf 93       	push	r27
	++timer_time;
 b96:	80 91 00 01 	lds	r24, 0x0100	; 0x800100 <_edata>
 b9a:	90 91 01 01 	lds	r25, 0x0101	; 0x800101 <_edata+0x1>
 b9e:	a0 91 02 01 	lds	r26, 0x0102	; 0x800102 <_edata+0x2>
 ba2:	b0 91 03 01 	lds	r27, 0x0103	; 0x800103 <_edata+0x3>
 ba6:	01 96       	adiw	r24, 0x01	; 1
 ba8:	a1 1d       	adc	r26, r1
 baa:	b1 1d       	adc	r27, r1
 bac:	80 93 00 01 	sts	0x0100, r24	; 0x800100 <_edata>
 bb0:	90 93 01 01 	sts	0x0101, r25	; 0x800101 <_edata+0x1>
 bb4:	a0 93 02 01 	sts	0x0102, r26	; 0x800102 <_edata+0x2>
 bb8:	b0 93 03 01 	sts	0x0103, r27	; 0x800103 <_edata+0x3>
	return;
}
 bbc:	bf 91       	pop	r27
 bbe:	af 91       	pop	r26
 bc0:	9f 91       	pop	r25
 bc2:	8f 91       	pop	r24
 bc4:	0f 90       	pop	r0
 bc6:	0f be       	out	0x3f, r0	; 63
 bc8:	0f 90       	pop	r0
 bca:	1f 90       	pop	r1
 bcc:	18 95       	reti

00000bce <timer_init>:
	* This function has to be called first, before calling TimerWait and/or TimerGet,
	* else TimerGet will always return 0, and TimerWait will wait forever!
	*/
void timer_init( void ) {
	// Reset timer to zero
	timer_time = 0;
 bce:	10 92 00 01 	sts	0x0100, r1	; 0x800100 <_edata>
 bd2:	10 92 01 01 	sts	0x0101, r1	; 0x800101 <_edata+0x1>
 bd6:	10 92 02 01 	sts	0x0102, r1	; 0x800102 <_edata+0x2>
 bda:	10 92 03 01 	sts	0x0103, r1	; 0x800103 <_edata+0x3>

	ATOMIC_BLOCK(ATOMIC_RESTORESTATE) {
 bde:	9f b7       	in	r25, 0x3f	; 63
    return 1;
}

static __inline__ uint8_t __iCliRetVal(void)
{
    cli();
 be0:	f8 94       	cli
		// ==> let timer count to 249 to get 1kHz frequency
		// therefore:
		// - Set Timer/Counter2 prescaler to 64 ==> (1<<CS22)
		// - Set OCR2 to 249
		// - CTC ( i.e. clear counter, when COUNTER == OCR2) ==> (1<<WGM21)
		TCCR0A = (1<<WGM01);
 be2:	82 e0       	ldi	r24, 0x02	; 2
 be4:	84 bd       	out	0x24, r24	; 36
		TCCR0B = (1<<CS01)|(1<<CS00);
 be6:	83 e0       	ldi	r24, 0x03	; 3
 be8:	85 bd       	out	0x25, r24	; 37
		OCR0A = 249;
 bea:	89 ef       	ldi	r24, 0xF9	; 249
 bec:	87 bd       	out	0x27, r24	; 39

		// Interrupts setzen
		TIMSK0 |= (1<<OCIE0A);
 bee:	ee e6       	ldi	r30, 0x6E	; 110
 bf0:	f0 e0       	ldi	r31, 0x00	; 0
 bf2:	80 81       	ld	r24, Z
 bf4:	82 60       	ori	r24, 0x02	; 2
 bf6:	80 83       	st	Z, r24
    (void)__s;
}

static __inline__ void __iRestore(const  uint8_t *__s)
{
    SREG = *__s;
 bf8:	9f bf       	out	0x3f, r25	; 63
    __asm__ volatile ("" ::: "memory");
 bfa:	08 95       	ret

00000bfc <timer_getMs>:
	* Get the current time
	* \return the current time (in ms)
	*/
uint32_t timer_getMs( void ) {
	uint32_t result;
	ATOMIC_BLOCK(ATOMIC_RESTORESTATE) {
 bfc:	2f b7       	in	r18, 0x3f	; 63
    return 1;
}

static __inline__ uint8_t __iCliRetVal(void)
{
    cli();
 bfe:	f8 94       	cli
		result = timer_time;
 c00:	60 91 00 01 	lds	r22, 0x0100	; 0x800100 <_edata>
 c04:	70 91 01 01 	lds	r23, 0x0101	; 0x800101 <_edata+0x1>
 c08:	80 91 02 01 	lds	r24, 0x0102	; 0x800102 <_edata+0x2>
 c0c:	90 91 03 01 	lds	r25, 0x0103	; 0x800103 <_edata+0x3>
    (void)__s;
}

static __inline__ void __iRestore(const  uint8_t *__s)
{
    SREG = *__s;
 c10:	2f bf       	out	0x3f, r18	; 63
	}
	return result;
}
 c12:	08 95       	ret

00000c14 <_exit>:
 c14:	f8 94       	cli

00000c16 <__stop_program>:
 c16:	ff cf       	rjmp	.-2      	; 0xc16 <__stop_program>
